

Microchip MPLAB XC8 Assembler V2.10 build 88905656 
                                                                                               Thu Feb 27 00:10:52 2020

Microchip MPLAB XC8 C Compiler v2.10 (Free license) build 20190730164152 Og1 
     1                           	processor	16F887
     2                           	opt	pw 120
     3                           	opt	flic
     4                           	psect	strings,global,class=STRING,delta=2
     5                           	psect	cinit,global,class=CODE,merge=1,delta=2
     6                           	psect	bssBANK0,global,class=BANK0,space=1,delta=1
     7                           	psect	clrtext,global,class=CODE,delta=2
     8                           	psect	cstackCOMMON,global,class=COMMON,space=1,delta=1
     9                           	psect	cstackBANK0,global,class=BANK0,space=1,delta=1
    10                           	psect	maintext,global,class=CODE,split=1,delta=2
    11                           	psect	text1,local,class=CODE,merge=1,delta=2
    12                           	psect	text2,local,class=CODE,merge=1,delta=2
    13                           	psect	text3,local,class=CODE,merge=1,delta=2
    14                           	psect	text4,local,class=CODE,merge=1,delta=2,group=1
    15                           	psect	text5,local,class=CODE,merge=1,delta=2,group=1
    16                           	psect	text6,local,class=CODE,merge=1,delta=2,group=1
    17                           	psect	text7,local,class=CODE,merge=1,delta=2,group=1
    18                           	psect	text8,local,class=CODE,merge=1,delta=2
    19                           	psect	text9,local,class=CODE,merge=1,delta=2,group=1
    20                           	psect	text10,local,class=CODE,merge=1,delta=2,group=1
    21                           	psect	text11,local,class=CODE,merge=1,delta=2
    22                           	psect	text12,local,class=CODE,merge=1,delta=2,group=1
    23                           	psect	text13,local,class=CODE,merge=1,delta=2
    24                           	psect	text14,local,class=CODE,merge=1,delta=2
    25                           	psect	text15,local,class=CODE,merge=1,delta=2
    26                           	psect	text16,local,class=CODE,merge=1,delta=2
    27                           	psect	text17,local,class=CODE,merge=1,delta=2
    28                           	psect	text18,local,class=CODE,merge=1,delta=2
    29                           	psect	text19,local,class=CODE,merge=1,delta=2
    30                           	psect	text20,local,class=CODE,merge=1,delta=2
    31                           	psect	text21,local,class=CODE,merge=1,delta=2
    32                           	psect	text22,local,class=CODE,merge=1,delta=2
    33                           	psect	text23,local,class=CODE,merge=1,delta=2,group=1
    34                           	psect	text24,local,class=CODE,merge=1,delta=2
    35                           	psect	text25,local,class=CODE,merge=1,delta=2
    36                           	dabs	1,0x7E,2
    37  0000                     
    38                           ; Version 2.10
    39                           ; Generated 31/07/2019 GMT
    40                           ; 
    41                           ; Copyright © 2019, Microchip Technology Inc. and its subsidiaries ("Microchip")
    42                           ; All rights reserved.
    43                           ; 
    44                           ; This software is developed by Microchip Technology Inc. and its subsidiaries ("Microch
      +                          ip").
    45                           ; 
    46                           ; Redistribution and use in source and binary forms, with or without modification, are
    47                           ; permitted provided that the following conditions are met:
    48                           ; 
    49                           ;     1. Redistributions of source code must retain the above copyright notice, this lis
      +                          t of
    50                           ;        conditions and the following disclaimer.
    51                           ; 
    52                           ;     2. Redistributions in binary form must reproduce the above copyright notice, this 
      +                          list
    53                           ;        of conditions and the following disclaimer in the documentation and/or other
    54                           ;        materials provided with the distribution.
    55                           ; 
    56                           ;     3. Microchip's name may not be used to endorse or promote products derived from th
      +                          is
    57                           ;        software without specific prior written permission.
    58                           ; 
    59                           ; THIS SOFTWARE IS PROVIDED BY MICROCHIP "AS IS" AND ANY EXPRESS OR IMPLIED WARRANTIES,
    60                           ; INCLUDING, BUT NOT LIMITED TO, THE IMPLIED WARRANTIES OF MERCHANTABILITY AND FITNESS F
      +                          OR
    61                           ; PURPOSE ARE DISCLAIMED.  IN NO EVENT SHALL MICROCHIP BE LIABLE FOR ANY DIRECT, INDIREC
      +                          T,
    62                           ; INCIDENTAL, SPECIAL, EXEMPLARY, OR CONSEQUENTIAL DAMAGES (INCLUDING BUT NOT LIMITED TO
    63                           ; PROCUREMENT OF SUBSTITUTE GOODS OR SERVICES; LOSS OF USE, DATA OR PROFITS; OR BUSINESS
    64                           ; INTERRUPTION) HOWSOEVER CAUSED AND ON ANY THEORY OF LIABILITY, WHETHER IN CONTRACT, ST
      +                          RICT
    65                           ; LIABILITY, OR TORT (INCLUDING NEGLIGENCE OR OTHERWISE) ARISING IN ANY WAY OUT OF THE U
      +                          SE OF
    66                           ; THIS SOFTWARE, EVEN IF ADVISED OF THE POSSIBILITY OF SUCH DAMAGE.
    67                           ; 
    68                           ; 
    69                           ; Code-generator required, PIC16F887 Definitions
    70                           ; 
    71                           ; SFR Addresses
    72  0000                     	;# 
    73  0001                     	;# 
    74  0002                     	;# 
    75  0003                     	;# 
    76  0004                     	;# 
    77  0005                     	;# 
    78  0006                     	;# 
    79  0007                     	;# 
    80  0008                     	;# 
    81  0009                     	;# 
    82  000A                     	;# 
    83  000B                     	;# 
    84  000C                     	;# 
    85  000D                     	;# 
    86  000E                     	;# 
    87  000E                     	;# 
    88  000F                     	;# 
    89  0010                     	;# 
    90  0011                     	;# 
    91  0012                     	;# 
    92  0013                     	;# 
    93  0014                     	;# 
    94  0015                     	;# 
    95  0015                     	;# 
    96  0016                     	;# 
    97  0017                     	;# 
    98  0018                     	;# 
    99  0019                     	;# 
   100  001A                     	;# 
   101  001B                     	;# 
   102  001B                     	;# 
   103  001C                     	;# 
   104  001D                     	;# 
   105  001E                     	;# 
   106  001F                     	;# 
   107  0081                     	;# 
   108  0085                     	;# 
   109  0086                     	;# 
   110  0087                     	;# 
   111  0088                     	;# 
   112  0089                     	;# 
   113  008C                     	;# 
   114  008D                     	;# 
   115  008E                     	;# 
   116  008F                     	;# 
   117  0090                     	;# 
   118  0091                     	;# 
   119  0092                     	;# 
   120  0093                     	;# 
   121  0093                     	;# 
   122  0093                     	;# 
   123  0094                     	;# 
   124  0095                     	;# 
   125  0096                     	;# 
   126  0097                     	;# 
   127  0098                     	;# 
   128  0099                     	;# 
   129  009A                     	;# 
   130  009B                     	;# 
   131  009C                     	;# 
   132  009D                     	;# 
   133  009E                     	;# 
   134  009F                     	;# 
   135  0105                     	;# 
   136  0107                     	;# 
   137  0108                     	;# 
   138  0109                     	;# 
   139  010C                     	;# 
   140  010C                     	;# 
   141  010D                     	;# 
   142  010E                     	;# 
   143  010F                     	;# 
   144  0185                     	;# 
   145  0187                     	;# 
   146  0188                     	;# 
   147  0189                     	;# 
   148  018C                     	;# 
   149  018D                     	;# 
   150  0000                     	;# 
   151  0001                     	;# 
   152  0002                     	;# 
   153  0003                     	;# 
   154  0004                     	;# 
   155  0005                     	;# 
   156  0006                     	;# 
   157  0007                     	;# 
   158  0008                     	;# 
   159  0009                     	;# 
   160  000A                     	;# 
   161  000B                     	;# 
   162  000C                     	;# 
   163  000D                     	;# 
   164  000E                     	;# 
   165  000E                     	;# 
   166  000F                     	;# 
   167  0010                     	;# 
   168  0011                     	;# 
   169  0012                     	;# 
   170  0013                     	;# 
   171  0014                     	;# 
   172  0015                     	;# 
   173  0015                     	;# 
   174  0016                     	;# 
   175  0017                     	;# 
   176  0018                     	;# 
   177  0019                     	;# 
   178  001A                     	;# 
   179  001B                     	;# 
   180  001B                     	;# 
   181  001C                     	;# 
   182  001D                     	;# 
   183  001E                     	;# 
   184  001F                     	;# 
   185  0081                     	;# 
   186  0085                     	;# 
   187  0086                     	;# 
   188  0087                     	;# 
   189  0088                     	;# 
   190  0089                     	;# 
   191  008C                     	;# 
   192  008D                     	;# 
   193  008E                     	;# 
   194  008F                     	;# 
   195  0090                     	;# 
   196  0091                     	;# 
   197  0092                     	;# 
   198  0093                     	;# 
   199  0093                     	;# 
   200  0093                     	;# 
   201  0094                     	;# 
   202  0095                     	;# 
   203  0096                     	;# 
   204  0097                     	;# 
   205  0098                     	;# 
   206  0099                     	;# 
   207  009A                     	;# 
   208  009B                     	;# 
   209  009C                     	;# 
   210  009D                     	;# 
   211  009E                     	;# 
   212  009F                     	;# 
   213  0105                     	;# 
   214  0107                     	;# 
   215  0108                     	;# 
   216  0109                     	;# 
   217  010C                     	;# 
   218  010C                     	;# 
   219  010D                     	;# 
   220  010E                     	;# 
   221  010F                     	;# 
   222  0185                     	;# 
   223  0187                     	;# 
   224  0188                     	;# 
   225  0189                     	;# 
   226  018C                     	;# 
   227  018D                     	;# 
   228  0000                     	;# 
   229  0001                     	;# 
   230  0002                     	;# 
   231  0003                     	;# 
   232  0004                     	;# 
   233  0005                     	;# 
   234  0006                     	;# 
   235  0007                     	;# 
   236  0008                     	;# 
   237  0009                     	;# 
   238  000A                     	;# 
   239  000B                     	;# 
   240  000C                     	;# 
   241  000D                     	;# 
   242  000E                     	;# 
   243  000E                     	;# 
   244  000F                     	;# 
   245  0010                     	;# 
   246  0011                     	;# 
   247  0012                     	;# 
   248  0013                     	;# 
   249  0014                     	;# 
   250  0015                     	;# 
   251  0015                     	;# 
   252  0016                     	;# 
   253  0017                     	;# 
   254  0018                     	;# 
   255  0019                     	;# 
   256  001A                     	;# 
   257  001B                     	;# 
   258  001B                     	;# 
   259  001C                     	;# 
   260  001D                     	;# 
   261  001E                     	;# 
   262  001F                     	;# 
   263  0081                     	;# 
   264  0085                     	;# 
   265  0086                     	;# 
   266  0087                     	;# 
   267  0088                     	;# 
   268  0089                     	;# 
   269  008C                     	;# 
   270  008D                     	;# 
   271  008E                     	;# 
   272  008F                     	;# 
   273  0090                     	;# 
   274  0091                     	;# 
   275  0092                     	;# 
   276  0093                     	;# 
   277  0093                     	;# 
   278  0093                     	;# 
   279  0094                     	;# 
   280  0095                     	;# 
   281  0096                     	;# 
   282  0097                     	;# 
   283  0098                     	;# 
   284  0099                     	;# 
   285  009A                     	;# 
   286  009B                     	;# 
   287  009C                     	;# 
   288  009D                     	;# 
   289  009E                     	;# 
   290  009F                     	;# 
   291  0105                     	;# 
   292  0107                     	;# 
   293  0108                     	;# 
   294  0109                     	;# 
   295  010C                     	;# 
   296  010C                     	;# 
   297  010D                     	;# 
   298  010E                     	;# 
   299  010F                     	;# 
   300  0185                     	;# 
   301  0187                     	;# 
   302  0188                     	;# 
   303  0189                     	;# 
   304  018C                     	;# 
   305  018D                     	;# 
   306  0000                     	;# 
   307  0001                     	;# 
   308  0002                     	;# 
   309  0003                     	;# 
   310  0004                     	;# 
   311  0005                     	;# 
   312  0006                     	;# 
   313  0007                     	;# 
   314  0008                     	;# 
   315  0009                     	;# 
   316  000A                     	;# 
   317  000B                     	;# 
   318  000C                     	;# 
   319  000D                     	;# 
   320  000E                     	;# 
   321  000E                     	;# 
   322  000F                     	;# 
   323  0010                     	;# 
   324  0011                     	;# 
   325  0012                     	;# 
   326  0013                     	;# 
   327  0014                     	;# 
   328  0015                     	;# 
   329  0015                     	;# 
   330  0016                     	;# 
   331  0017                     	;# 
   332  0018                     	;# 
   333  0019                     	;# 
   334  001A                     	;# 
   335  001B                     	;# 
   336  001B                     	;# 
   337  001C                     	;# 
   338  001D                     	;# 
   339  001E                     	;# 
   340  001F                     	;# 
   341  0081                     	;# 
   342  0085                     	;# 
   343  0086                     	;# 
   344  0087                     	;# 
   345  0088                     	;# 
   346  0089                     	;# 
   347  008C                     	;# 
   348  008D                     	;# 
   349  008E                     	;# 
   350  008F                     	;# 
   351  0090                     	;# 
   352  0091                     	;# 
   353  0092                     	;# 
   354  0093                     	;# 
   355  0093                     	;# 
   356  0093                     	;# 
   357  0094                     	;# 
   358  0095                     	;# 
   359  0096                     	;# 
   360  0097                     	;# 
   361  0098                     	;# 
   362  0099                     	;# 
   363  009A                     	;# 
   364  009B                     	;# 
   365  009C                     	;# 
   366  009D                     	;# 
   367  009E                     	;# 
   368  009F                     	;# 
   369  0105                     	;# 
   370  0107                     	;# 
   371  0108                     	;# 
   372  0109                     	;# 
   373  010C                     	;# 
   374  010C                     	;# 
   375  010D                     	;# 
   376  010E                     	;# 
   377  010F                     	;# 
   378  0185                     	;# 
   379  0187                     	;# 
   380  0188                     	;# 
   381  0189                     	;# 
   382  018C                     	;# 
   383  018D                     	;# 
   384  0013                     _SSPBUF	set	19
   385  000C                     _PIR1bits	set	12
   386  000B                     _INTCONbits	set	11
   387  0014                     _SSPCON	set	20
   388  0014                     _SSPCONbits	set	20
   389  0008                     _PORTDbits	set	8
   390  0008                     _PORTD	set	8
   391  0006                     _PORTB	set	6
   392  0091                     _SSPCON2bits	set	145
   393  0094                     _SSPSTATbits	set	148
   394  008C                     _PIE1bits	set	140
   395  0087                     _TRISCbits	set	135
   396  0094                     _SSPSTAT	set	148
   397  0093                     _SSPADD	set	147
   398  0091                     _SSPCON2	set	145
   399  0088                     _TRISD	set	136
   400  0086                     _TRISB	set	134
   401  0189                     _ANSELH	set	393
   402  0188                     _ANSEL	set	392
   403                           
   404                           	psect	strings
   405  0800                     __pstrings:	
   406  0800                     stringtab:	
   407  0800                     __stringtab:	
   408  0800                     stringcode:	
   409                           ;	String table - string pointers are 1 byte each
   410                           
   411  0800                     stringdir:	
   412  0800  3008               	movlw	high stringdir
   413  0801  008A               	movwf	10
   414  0802  0804               	movf	4,w
   415  0803  0A84               	incf	4,f
   416  0804  0782               	addwf	2,f
   417  0805                     __stringbase:	
   418  0805  3400               	retlw	0
   419  0806                     __end_of__stringtab:	
   420  0806                     STR_1:	
   421  0806  3450               	retlw	80	;'P'
   422  0807  346F               	retlw	111	;'o'
   423  0808  3474               	retlw	116	;'t'
   424  0809  3420               	retlw	32	;' '
   425  080A  3420               	retlw	32	;' '
   426  080B  3420               	retlw	32	;' '
   427  080C  3446               	retlw	70	;'F'
   428  080D  346F               	retlw	111	;'o'
   429  080E  3474               	retlw	116	;'t'
   430  080F  346F               	retlw	111	;'o'
   431  0810  3420               	retlw	32	;' '
   432  0811  3420               	retlw	32	;' '
   433  0812  3443               	retlw	67	;'C'
   434  0813  346F               	retlw	111	;'o'
   435  0814  346E               	retlw	110	;'n'
   436  0815  3474               	retlw	116	;'t'
   437  0816  3400               	retlw	0
   438  0817                     STR_2:	
   439  0817  342E               	retlw	46	;'.'
   440  0818  3400               	retlw	0
   441  0817                     
   442                           ; #config settings
   443  0000                     
   444                           	psect	cinit
   445  07F3                     start_initialization:	
   446  07F3                     __initialization:	
   447                           
   448                           ; Clear objects allocated to BANK0
   449  07F3  1383               	bcf	3,7	;select IRP bank0
   450  07F4  304F               	movlw	low __pbssBANK0
   451  07F5  0084               	movwf	4
   452  07F6  3070               	movlw	low (__pbssBANK0+33)
   453  07F7  120A  158A  2529  120A  118A  	fcall	clear_ram0
   454  07FC                     end_of_initialization:	
   455                           ;End of C runtime variable initialization code
   456                           
   457  07FC                     __end_of__initialization:	
   458  07FC  0183               	clrf	3
   459  07FD  120A  118A  2A26   	ljmp	_main	;jump to C main() function
   460                           
   461                           	psect	bssBANK0
   462  004F                     __pbssBANK0:	
   463  004F                     _fotof:	
   464  004F                     	ds	4
   465  0053                     _potf:	
   466  0053                     	ds	4
   467  0057                     _temfoto:	
   468  0057                     	ds	2
   469  0059                     _tempot:	
   470  0059                     	ds	2
   471  005B                     _charcont2:	
   472  005B                     	ds	1
   473  005C                     _charcont1:	
   474  005C                     	ds	1
   475  005D                     _charpot3:	
   476  005D                     	ds	1
   477  005E                     _charfoto3:	
   478  005E                     	ds	1
   479  005F                     _charpot2:	
   480  005F                     	ds	1
   481  0060                     _charfoto2:	
   482  0060                     	ds	1
   483  0061                     _charpot1:	
   484  0061                     	ds	1
   485  0062                     _charfoto1:	
   486  0062                     	ds	1
   487  0063                     _dececont:	
   488  0063                     	ds	1
   489  0064                     _unicont:	
   490  0064                     	ds	1
   491  0065                     _deci2foto:	
   492  0065                     	ds	1
   493  0066                     _deci1foto:	
   494  0066                     	ds	1
   495  0067                     _unifoto:	
   496  0067                     	ds	1
   497  0068                     _a:	
   498  0068                     	ds	1
   499  0069                     _deci2pot:	
   500  0069                     	ds	1
   501  006A                     _deci1pot:	
   502  006A                     	ds	1
   503  006B                     _unipot:	
   504  006B                     	ds	1
   505  006C                     _cont:	
   506  006C                     	ds	1
   507  006D                     _foto:	
   508  006D                     	ds	1
   509  006E                     _pot:	
   510  006E                     	ds	1
   511  006F                     _address:	
   512  006F                     	ds	1
   513                           
   514                           	psect	clrtext
   515  0D29                     clear_ram0:	
   516                           ;	Called with FSR containing the base address, and
   517                           ;	W with the last address+1
   518                           
   519  0D29  0064               	clrwdt	;clear the watchdog before getting into this loop
   520  0D2A                     clrloop0:	
   521  0D2A  0180               	clrf	0	;clear RAM location pointed to by FSR
   522  0D2B  0A84               	incf	4,f	;increment pointer
   523  0D2C  0604               	xorwf	4,w	;XOR with final address
   524  0D2D  1903               	btfsc	3,2	;have we reached the end yet?
   525  0D2E  3400               	retlw	0	;all done for this memory range, return
   526  0D2F  0604               	xorwf	4,w	;XOR again to restore value
   527  0D30  2D2A               	goto	clrloop0	;do the next byte
   528                           
   529                           	psect	cstackCOMMON
   530  0070                     __pcstackCOMMON:	
   531  0070                     ?_Init_Port:	
   532  0070                     ??_Init_Port:	
   533                           ; 1 bytes @ 0x0
   534                           
   535  0070                     ?_LCD_INIT:	
   536                           ; 1 bytes @ 0x0
   537                           
   538  0070                     ?_LCD_WRITE_STRING:	
   539                           ; 1 bytes @ 0x0
   540                           
   541  0070                     ?_Start_I2C_Master:	
   542                           ; 1 bytes @ 0x0
   543                           
   544  0070                     ??_Start_I2C_Master:	
   545                           ; 1 bytes @ 0x0
   546                           
   547  0070                     ?_Write_I2C_Master:	
   548                           ; 1 bytes @ 0x0
   549                           
   550  0070                     ?_Stop_I2C_Master:	
   551                           ; 1 bytes @ 0x0
   552                           
   553  0070                     ??_Stop_I2C_Master:	
   554                           ; 1 bytes @ 0x0
   555                           
   556  0070                     ?_obtener_unidades:	
   557                           ; 1 bytes @ 0x0
   558                           
   559  0070                     ?_obtener_decenas:	
   560                           ; 1 bytes @ 0x0
   561                           
   562  0070                     ?_convertir_a_ascii:	
   563                           ; 1 bytes @ 0x0
   564                           
   565  0070                     ??_convertir_a_ascii:	
   566                           ; 1 bytes @ 0x0
   567                           
   568  0070                     ?_LCD_WRITE_CHAR:	
   569                           ; 1 bytes @ 0x0
   570                           
   571  0070                     ??_LCD_WRITE_CHAR:	
   572                           ; 1 bytes @ 0x0
   573                           
   574  0070                     ?_main:	
   575                           ; 1 bytes @ 0x0
   576                           
   577  0070                     ?_LCD_CMD:	
   578                           ; 1 bytes @ 0x0
   579                           
   580  0070                     ??_LCD_CMD:	
   581                           ; 1 bytes @ 0x0
   582                           
   583  0070                     ?_Wait_I2C_Master:	
   584                           ; 1 bytes @ 0x0
   585                           
   586  0070                     ??_Wait_I2C_Master:	
   587                           ; 1 bytes @ 0x0
   588                           
   589  0070                     ?_I2C_Master_Read:	
   590                           ; 1 bytes @ 0x0
   591                           
   592  0070                     ?__Umul8_16:	
   593                           ; 2 bytes @ 0x0
   594                           
   595  0070                     ?___awdiv:	
   596                           ; 2 bytes @ 0x0
   597                           
   598  0070                     ?___lwmod:	
   599                           ; 2 bytes @ 0x0
   600                           
   601  0070                     ?___lldiv:	
   602                           ; 2 bytes @ 0x0
   603                           
   604  0070                     ?___xxtofl:	
   605                           ; 4 bytes @ 0x0
   606                           
   607  0070                     __Umul8_16@multiplicand:	
   608                           ; 4 bytes @ 0x0
   609                           
   610  0070                     Write_I2C_Master@a:	
   611                           ; 1 bytes @ 0x0
   612                           
   613  0070                     I2C_Master_Read@a:	
   614                           ; 2 bytes @ 0x0
   615                           
   616  0070                     ___awdiv@divisor:	
   617                           ; 2 bytes @ 0x0
   618                           
   619  0070                     ___lwmod@divisor:	
   620                           ; 2 bytes @ 0x0
   621                           
   622  0070                     ___lldiv@divisor:	
   623                           ; 2 bytes @ 0x0
   624                           
   625  0070                     ___xxtofl@val:	
   626                           ; 4 bytes @ 0x0
   627                           
   628                           
   629                           ; 4 bytes @ 0x0
   630  0070                     	ds	1
   631  0071                     convertir_a_ascii@a:	
   632                           
   633                           ; 1 bytes @ 0x1
   634  0071                     	ds	1
   635  0072                     ??_Write_I2C_Master:	
   636  0072                     ??_I2C_Master_Read:	
   637                           ; 1 bytes @ 0x2
   638                           
   639  0072                     ??__Umul8_16:	
   640                           ; 1 bytes @ 0x2
   641                           
   642  0072                     convertir_a_ascii@temporal:	
   643                           ; 1 bytes @ 0x2
   644                           
   645  0072                     LCD_CMD@a:	
   646                           ; 1 bytes @ 0x2
   647                           
   648  0072                     LCD_WRITE_CHAR@a:	
   649                           ; 1 bytes @ 0x2
   650                           
   651  0072                     ___awdiv@dividend:	
   652                           ; 1 bytes @ 0x2
   653                           
   654  0072                     ___lwmod@dividend:	
   655                           ; 2 bytes @ 0x2
   656                           
   657                           
   658                           ; 2 bytes @ 0x2
   659  0072                     	ds	1
   660  0073                     ??_LCD_INIT:	
   661  0073                     ?_LCD_SET_CURSOR:	
   662                           ; 1 bytes @ 0x3
   663                           
   664  0073                     ??_LCD_WRITE_STRING:	
   665                           ; 1 bytes @ 0x3
   666                           
   667  0073                     LCD_SET_CURSOR@b:	
   668                           ; 1 bytes @ 0x3
   669                           
   670  0073                     LCD_WRITE_STRING@i:	
   671                           ; 1 bytes @ 0x3
   672                           
   673                           
   674                           ; 2 bytes @ 0x3
   675  0073                     	ds	1
   676  0074                     ??_LCD_SET_CURSOR:	
   677  0074                     ??___awdiv:	
   678                           ; 1 bytes @ 0x4
   679                           
   680  0074                     ??___lwmod:	
   681                           ; 1 bytes @ 0x4
   682                           
   683  0074                     ??___xxtofl:	
   684                           ; 1 bytes @ 0x4
   685                           
   686  0074                     I2C_Master_Read@temporal:	
   687                           ; 1 bytes @ 0x4
   688                           
   689  0074                     __Umul8_16@product:	
   690                           ; 2 bytes @ 0x4
   691                           
   692  0074                     ___lldiv@dividend:	
   693                           ; 2 bytes @ 0x4
   694                           
   695                           
   696                           ; 4 bytes @ 0x4
   697  0074                     	ds	1
   698  0075                     LCD_SET_CURSOR@a:	
   699  0075                     LCD_WRITE_STRING@a:	
   700                           ; 1 bytes @ 0x5
   701                           
   702  0075                     ___awdiv@counter:	
   703                           ; 1 bytes @ 0x5
   704                           
   705  0075                     ___lwmod@counter:	
   706                           ; 1 bytes @ 0x5
   707                           
   708                           
   709                           ; 1 bytes @ 0x5
   710  0075                     	ds	1
   711  0076                     LCD_SET_CURSOR@temporal:	
   712  0076                     ___awdiv@sign:	
   713                           ; 1 bytes @ 0x6
   714                           
   715  0076                     __Umul8_16@word_mpld:	
   716                           ; 1 bytes @ 0x6
   717                           
   718                           
   719                           ; 2 bytes @ 0x6
   720  0076                     	ds	1
   721  0077                     ___awdiv@quotient:	
   722                           
   723                           ; 2 bytes @ 0x7
   724  0077                     	ds	1
   725  0078                     ??___lldiv:	
   726  0078                     ___xxtofl@sign:	
   727                           ; 1 bytes @ 0x8
   728                           
   729  0078                     __Umul8_16@multiplier:	
   730                           ; 1 bytes @ 0x8
   731                           
   732                           
   733                           ; 1 bytes @ 0x8
   734  0078                     	ds	1
   735  0079                     ?___awmod:	
   736  0079                     ___xxtofl@exp:	
   737                           ; 2 bytes @ 0x9
   738                           
   739  0079                     ___awmod@divisor:	
   740                           ; 1 bytes @ 0x9
   741                           
   742  0079                     ___lldiv@quotient:	
   743                           ; 2 bytes @ 0x9
   744                           
   745                           
   746                           ; 4 bytes @ 0x9
   747  0079                     	ds	1
   748  007A                     ___xxtofl@arg:	
   749                           
   750                           ; 4 bytes @ 0xA
   751  007A                     	ds	1
   752  007B                     ___awmod@dividend:	
   753                           
   754                           ; 2 bytes @ 0xB
   755  007B                     	ds	2
   756  007D                     ??___awmod:	
   757  007D                     ___lldiv@counter:	
   758                           ; 1 bytes @ 0xD
   759                           
   760                           
   761                           ; 1 bytes @ 0xD
   762  007D                     	ds	1
   763  007E                     ??_obtener_decimal_1:	
   764  007E                     ??_obtener_decimal_2:	
   765                           ; 1 bytes @ 0xE
   766                           
   767                           
   768                           	psect	cstackBANK0
   769  0020                     __pcstackBANK0:	
   770                           ; 1 bytes @ 0xE
   771                           
   772  0020                     ?_Init_I2C_Master:	
   773  0020                     ?___flmul:	
   774                           ; 1 bytes @ 0x0
   775                           
   776  0020                     ___awmod@counter:	
   777                           ; 4 bytes @ 0x0
   778                           
   779  0020                     Init_I2C_Master@b:	
   780                           ; 1 bytes @ 0x0
   781                           
   782  0020                     ___flmul@b:	
   783                           ; 4 bytes @ 0x0
   784                           
   785                           
   786                           ; 4 bytes @ 0x0
   787  0020                     	ds	1
   788  0021                     ___awmod@sign:	
   789                           
   790                           ; 1 bytes @ 0x1
   791  0021                     	ds	1
   792  0022                     ??_obtener_unidades:	
   793  0022                     ??_obtener_decenas:	
   794                           ; 1 bytes @ 0x2
   795                           
   796                           
   797                           ; 1 bytes @ 0x2
   798  0022                     	ds	2
   799  0024                     ??_Init_I2C_Master:	
   800  0024                     ___flmul@a:	
   801                           ; 1 bytes @ 0x4
   802                           
   803                           
   804                           ; 4 bytes @ 0x4
   805  0024                     	ds	1
   806  0025                     obtener_unidades@a:	
   807  0025                     obtener_decenas@a:	
   808                           ; 1 bytes @ 0x5
   809                           
   810                           
   811                           ; 1 bytes @ 0x5
   812  0025                     	ds	1
   813  0026                     obtener_unidades@temporal:	
   814  0026                     obtener_decenas@temporal:	
   815                           ; 1 bytes @ 0x6
   816                           
   817                           
   818                           ; 1 bytes @ 0x6
   819  0026                     	ds	2
   820  0028                     ??___flmul:	
   821                           
   822                           ; 1 bytes @ 0x8
   823  0028                     	ds	5
   824  002D                     ___flmul@sign:	
   825                           
   826                           ; 1 bytes @ 0xD
   827  002D                     	ds	1
   828  002E                     ___flmul@grs:	
   829                           
   830                           ; 4 bytes @ 0xE
   831  002E                     	ds	4
   832  0032                     ___flmul@aexp:	
   833                           
   834                           ; 1 bytes @ 0x12
   835  0032                     	ds	1
   836  0033                     ___flmul@bexp:	
   837                           
   838                           ; 1 bytes @ 0x13
   839  0033                     	ds	1
   840  0034                     ___flmul@prod:	
   841                           
   842                           ; 4 bytes @ 0x14
   843  0034                     	ds	4
   844  0038                     ___flmul@temp:	
   845                           
   846                           ; 2 bytes @ 0x18
   847  0038                     	ds	2
   848  003A                     ?___fltol:	
   849  003A                     ___fltol@f1:	
   850                           ; 4 bytes @ 0x1A
   851                           
   852                           
   853                           ; 4 bytes @ 0x1A
   854  003A                     	ds	4
   855  003E                     ??___fltol:	
   856                           
   857                           ; 1 bytes @ 0x1E
   858  003E                     	ds	5
   859  0043                     ___fltol@sign1:	
   860                           
   861                           ; 1 bytes @ 0x23
   862  0043                     	ds	1
   863  0044                     ___fltol@exp1:	
   864                           
   865                           ; 1 bytes @ 0x24
   866  0044                     	ds	1
   867  0045                     ?_obtener_decimal_1:	
   868  0045                     ?_obtener_decimal_2:	
   869                           ; 1 bytes @ 0x25
   870                           
   871  0045                     obtener_decimal_1@a:	
   872                           ; 1 bytes @ 0x25
   873                           
   874  0045                     obtener_decimal_2@a:	
   875                           ; 4 bytes @ 0x25
   876                           
   877                           
   878                           ; 4 bytes @ 0x25
   879  0045                     	ds	4
   880  0049                     obtener_decimal_1@temporal:	
   881  0049                     obtener_decimal_2@temporal:	
   882                           ; 2 bytes @ 0x29
   883                           
   884                           
   885                           ; 2 bytes @ 0x29
   886  0049                     	ds	2
   887  004B                     ??_main:	
   888                           
   889                           ; 1 bytes @ 0x2B
   890  004B                     	ds	4
   891                           
   892                           	psect	maintext
   893  0226                     __pmaintext:	
   894 ;;
   895 ;;Main: autosize = 0, tempsize = 4, incstack = 0, save=0
   896 ;;
   897 ;; *************** function _main *****************
   898 ;; Defined at:
   899 ;;		line 51 in file "Main_master.c"
   900 ;; Parameters:    Size  Location     Type
   901 ;;		None
   902 ;; Auto vars:     Size  Location     Type
   903 ;;		None
   904 ;; Return value:  Size  Location     Type
   905 ;;                  1    wreg      void 
   906 ;; Registers used:
   907 ;;		wreg, fsr0l, fsr0h, status,2, status,0, btemp+1, pclath, cstack
   908 ;; Tracked objects:
   909 ;;		On entry : B00/0
   910 ;;		On exit  : 0/0
   911 ;;		Unchanged: 0/0
   912 ;; Data sizes:     COMMON   BANK0   BANK1   BANK3   BANK2
   913 ;;      Params:         0       0       0       0       0
   914 ;;      Locals:         0       0       0       0       0
   915 ;;      Temps:          0       4       0       0       0
   916 ;;      Totals:         0       4       0       0       0
   917 ;;Total ram usage:        4 bytes
   918 ;; Hardware stack levels required when called:    3
   919 ;; This function calls:
   920 ;;		_I2C_Master_Read
   921 ;;		_Init_I2C_Master
   922 ;;		_Init_Port
   923 ;;		_LCD_INIT
   924 ;;		_LCD_SET_CURSOR
   925 ;;		_LCD_WRITE_CHAR
   926 ;;		_LCD_WRITE_STRING
   927 ;;		_Start_I2C_Master
   928 ;;		_Stop_I2C_Master
   929 ;;		_Write_I2C_Master
   930 ;;		___flmul
   931 ;;		___fltol
   932 ;;		___xxtofl
   933 ;;		_convertir_a_ascii
   934 ;;		_obtener_decenas
   935 ;;		_obtener_decimal_1
   936 ;;		_obtener_decimal_2
   937 ;;		_obtener_unidades
   938 ;; This function is called by:
   939 ;;		Startup code after reset
   940 ;; This function uses a non-reentrant model
   941 ;;
   942                           
   943                           
   944                           ;psect for function _main
   945  0226                     _main:	
   946  0226                     l1939:	
   947                           ;incstack = 0
   948                           ; Regs used in _main: [wreg-fsr0h+status,2+status,0+btemp+1+pclath+cstack]
   949                           
   950                           
   951                           ;Main_master.c: 52:     Init_Port();
   952  0226  120A  158A  255A  120A  118A  	fcall	_Init_Port
   953  022B                     l1941:	
   954                           
   955                           ;Main_master.c: 53:     Init_I2C_Master(100000);
   956  022B  3000               	movlw	0
   957  022C  1283               	bcf	3,5	;RP0=0, select bank0
   958  022D  1303               	bcf	3,6	;RP1=0, select bank0
   959  022E  00A3               	movwf	Init_I2C_Master@b+3
   960  022F  3001               	movlw	1
   961  0230  00A2               	movwf	Init_I2C_Master@b+2
   962  0231  3086               	movlw	134
   963  0232  00A1               	movwf	Init_I2C_Master@b+1
   964  0233  30A0               	movlw	160
   965  0234  00A0               	movwf	Init_I2C_Master@b
   966  0235  120A  158A  2694  120A  118A  	fcall	_Init_I2C_Master
   967  023A                     l1943:	
   968                           
   969                           ;Main_master.c: 54:     LCD_INIT();
   970  023A  120A  158A  2752  120A  118A  	fcall	_LCD_INIT
   971  023F                     l1945:	
   972                           
   973                           ;Main_master.c: 56:         LCD_SET_CURSOR (1,1);
   974  023F  01F3               	clrf	LCD_SET_CURSOR@b
   975  0240  0AF3               	incf	LCD_SET_CURSOR@b,f
   976  0241  3001               	movlw	1
   977  0242  120A  158A  2594  120A  118A  	fcall	_LCD_SET_CURSOR
   978  0247                     l1947:	
   979                           
   980                           ;Main_master.c: 57:         LCD_WRITE_STRING ("Pot   Foto  Cont");
   981  0247  3001               	movlw	(low ((STR_1-__stringbase)| (0+32768)))& (0+255)
   982  0248  120A  158A  25B8  120A  118A  	fcall	_LCD_WRITE_STRING
   983  024D                     l1949:	
   984                           
   985                           ;Main_master.c: 59:         Start_I2C_Master();
   986  024D  120A  158A  2531  120A  118A  	fcall	_Start_I2C_Master
   987  0252                     l1951:	
   988                           
   989                           ;Main_master.c: 60:         Write_I2C_Master(0x11);
   990  0252  3011               	movlw	17
   991  0253  00F0               	movwf	Write_I2C_Master@a
   992  0254  3000               	movlw	0
   993  0255  00F1               	movwf	Write_I2C_Master@a+1
   994  0256  120A  158A  2543  120A  118A  	fcall	_Write_I2C_Master
   995  025B                     l1953:	
   996                           
   997                           ;Main_master.c: 61:         pot = I2C_Master_Read(0);
   998  025B  3000               	movlw	0
   999  025C  00F0               	movwf	I2C_Master_Read@a
  1000  025D  00F1               	movwf	I2C_Master_Read@a+1
  1001  025E  120A  158A  262C  120A  118A  	fcall	_I2C_Master_Read
  1002  0263  0870               	movf	?_I2C_Master_Read,w
  1003  0264  1283               	bcf	3,5	;RP0=0, select bank0
  1004  0265  1303               	bcf	3,6	;RP1=0, select bank0
  1005  0266  00CB               	movwf	??_main
  1006  0267  084B               	movf	??_main,w
  1007  0268  00EE               	movwf	_pot
  1008  0269                     l1955:	
  1009                           
  1010                           ;Main_master.c: 62:         Stop_I2C_Master();
  1011  0269  120A  158A  253A  120A  118A  	fcall	_Stop_I2C_Master
  1012  026E                     l1957:	
  1013                           
  1014                           ;Main_master.c: 63:         _delay((unsigned long)((10)*(4000000/4000.0)));
  1015  026E  300D               	movlw	13
  1016  026F  1283               	bcf	3,5	;RP0=0, select bank0
  1017  0270  1303               	bcf	3,6	;RP1=0, select bank0
  1018  0271  00CC               	movwf	??_main+1
  1019  0272  30FB               	movlw	251
  1020  0273  00CB               	movwf	??_main
  1021  0274                     u2077:	
  1022  0274  0BCB               	decfsz	??_main,f
  1023  0275  2A74               	goto	u2077
  1024  0276  0BCC               	decfsz	??_main+1,f
  1025  0277  2A74               	goto	u2077
  1026  0278                     l1959:	
  1027                           
  1028                           ;Main_master.c: 65:         Start_I2C_Master();
  1029  0278  120A  158A  2531  120A  118A  	fcall	_Start_I2C_Master
  1030  027D                     l1961:	
  1031                           
  1032                           ;Main_master.c: 66:         Write_I2C_Master(0x21);
  1033  027D  3021               	movlw	33
  1034  027E  00F0               	movwf	Write_I2C_Master@a
  1035  027F  3000               	movlw	0
  1036  0280  00F1               	movwf	Write_I2C_Master@a+1
  1037  0281  120A  158A  2543  120A  118A  	fcall	_Write_I2C_Master
  1038  0286                     l1963:	
  1039                           
  1040                           ;Main_master.c: 67:         foto = I2C_Master_Read(0);
  1041  0286  3000               	movlw	0
  1042  0287  00F0               	movwf	I2C_Master_Read@a
  1043  0288  00F1               	movwf	I2C_Master_Read@a+1
  1044  0289  120A  158A  262C  120A  118A  	fcall	_I2C_Master_Read
  1045  028E  0870               	movf	?_I2C_Master_Read,w
  1046  028F  1283               	bcf	3,5	;RP0=0, select bank0
  1047  0290  1303               	bcf	3,6	;RP1=0, select bank0
  1048  0291  00CB               	movwf	??_main
  1049  0292  084B               	movf	??_main,w
  1050  0293  00ED               	movwf	_foto
  1051  0294                     l1965:	
  1052                           
  1053                           ;Main_master.c: 68:         Stop_I2C_Master();
  1054  0294  120A  158A  253A  120A  118A  	fcall	_Stop_I2C_Master
  1055  0299                     l1967:	
  1056                           
  1057                           ;Main_master.c: 69:         _delay((unsigned long)((10)*(4000000/4000.0)));
  1058  0299  300D               	movlw	13
  1059  029A  1283               	bcf	3,5	;RP0=0, select bank0
  1060  029B  1303               	bcf	3,6	;RP1=0, select bank0
  1061  029C  00CC               	movwf	??_main+1
  1062  029D  30FB               	movlw	251
  1063  029E  00CB               	movwf	??_main
  1064  029F                     u2087:	
  1065  029F  0BCB               	decfsz	??_main,f
  1066  02A0  2A9F               	goto	u2087
  1067  02A1  0BCC               	decfsz	??_main+1,f
  1068  02A2  2A9F               	goto	u2087
  1069  02A3                     l1969:	
  1070                           
  1071                           ;Main_master.c: 71:         Start_I2C_Master();
  1072  02A3  120A  158A  2531  120A  118A  	fcall	_Start_I2C_Master
  1073  02A8                     l1971:	
  1074                           
  1075                           ;Main_master.c: 72:         Write_I2C_Master(0x31);
  1076  02A8  3031               	movlw	49
  1077  02A9  00F0               	movwf	Write_I2C_Master@a
  1078  02AA  3000               	movlw	0
  1079  02AB  00F1               	movwf	Write_I2C_Master@a+1
  1080  02AC  120A  158A  2543  120A  118A  	fcall	_Write_I2C_Master
  1081  02B1                     l1973:	
  1082                           
  1083                           ;Main_master.c: 73:         cont = I2C_Master_Read(0);
  1084  02B1  3000               	movlw	0
  1085  02B2  00F0               	movwf	I2C_Master_Read@a
  1086  02B3  00F1               	movwf	I2C_Master_Read@a+1
  1087  02B4  120A  158A  262C  120A  118A  	fcall	_I2C_Master_Read
  1088  02B9  0870               	movf	?_I2C_Master_Read,w
  1089  02BA  1283               	bcf	3,5	;RP0=0, select bank0
  1090  02BB  1303               	bcf	3,6	;RP1=0, select bank0
  1091  02BC  00CB               	movwf	??_main
  1092  02BD  084B               	movf	??_main,w
  1093  02BE  00EC               	movwf	_cont
  1094  02BF                     l1975:	
  1095                           
  1096                           ;Main_master.c: 74:         Stop_I2C_Master();
  1097  02BF  120A  158A  253A  120A  118A  	fcall	_Stop_I2C_Master
  1098  02C4                     l1977:	
  1099                           
  1100                           ;Main_master.c: 75:         _delay((unsigned long)((10)*(4000000/4000.0)));
  1101  02C4  300D               	movlw	13
  1102  02C5  1283               	bcf	3,5	;RP0=0, select bank0
  1103  02C6  1303               	bcf	3,6	;RP1=0, select bank0
  1104  02C7  00CC               	movwf	??_main+1
  1105  02C8  30FB               	movlw	251
  1106  02C9  00CB               	movwf	??_main
  1107  02CA                     u2097:	
  1108  02CA  0BCB               	decfsz	??_main,f
  1109  02CB  2ACA               	goto	u2097
  1110  02CC  0BCC               	decfsz	??_main+1,f
  1111  02CD  2ACA               	goto	u2097
  1112  02CE                     l1979:	
  1113                           
  1114                           ;Main_master.c: 77:         potf = pot*(5.0/255);
  1115  02CE  303C               	movlw	60
  1116  02CF  1283               	bcf	3,5	;RP0=0, select bank0
  1117  02D0  1303               	bcf	3,6	;RP1=0, select bank0
  1118  02D1  00A3               	movwf	___flmul@b+3
  1119  02D2  30A0               	movlw	160
  1120  02D3  00A2               	movwf	___flmul@b+2
  1121  02D4  30A0               	movlw	160
  1122  02D5  00A1               	movwf	___flmul@b+1
  1123  02D6  30A1               	movlw	161
  1124  02D7  00A0               	movwf	___flmul@b
  1125  02D8  086E               	movf	_pot,w
  1126  02D9  00CB               	movwf	??_main
  1127  02DA  01CC               	clrf	??_main+1
  1128  02DB  01CD               	clrf	??_main+2
  1129  02DC  01CE               	clrf	??_main+3
  1130  02DD  084E               	movf	??_main+3,w
  1131  02DE  00F3               	movwf	___xxtofl@val+3
  1132  02DF  084D               	movf	??_main+2,w
  1133  02E0  00F2               	movwf	___xxtofl@val+2
  1134  02E1  084C               	movf	??_main+1,w
  1135  02E2  00F1               	movwf	___xxtofl@val+1
  1136  02E3  084B               	movf	??_main,w
  1137  02E4  00F0               	movwf	___xxtofl@val
  1138  02E5  3001               	movlw	1
  1139  02E6  120A  118A  216C  120A  118A  	fcall	___xxtofl
  1140  02EB  0873               	movf	?___xxtofl+3,w
  1141  02EC  1283               	bcf	3,5	;RP0=0, select bank0
  1142  02ED  1303               	bcf	3,6	;RP1=0, select bank0
  1143  02EE  00A7               	movwf	___flmul@a+3
  1144  02EF  0872               	movf	?___xxtofl+2,w
  1145  02F0  00A6               	movwf	___flmul@a+2
  1146  02F1  0871               	movf	?___xxtofl+1,w
  1147  02F2  00A5               	movwf	___flmul@a+1
  1148  02F3  0870               	movf	?___xxtofl,w
  1149  02F4  00A4               	movwf	___flmul@a
  1150  02F5  120A  118A  2492  120A  118A  	fcall	___flmul
  1151  02FA  1283               	bcf	3,5	;RP0=0, select bank0
  1152  02FB  1303               	bcf	3,6	;RP1=0, select bank0
  1153  02FC  0823               	movf	?___flmul+3,w
  1154  02FD  00D6               	movwf	_potf+3
  1155  02FE  0822               	movf	?___flmul+2,w
  1156  02FF  00D5               	movwf	_potf+2
  1157  0300  0821               	movf	?___flmul+1,w
  1158  0301  00D4               	movwf	_potf+1
  1159  0302  0820               	movf	?___flmul,w
  1160  0303  00D3               	movwf	_potf
  1161  0304                     l1981:	
  1162                           
  1163                           ;Main_master.c: 78:         fotof = foto*(5.0/255);
  1164  0304  303C               	movlw	60
  1165  0305  00A3               	movwf	___flmul@b+3
  1166  0306  30A0               	movlw	160
  1167  0307  00A2               	movwf	___flmul@b+2
  1168  0308  30A0               	movlw	160
  1169  0309  00A1               	movwf	___flmul@b+1
  1170  030A  30A1               	movlw	161
  1171  030B  00A0               	movwf	___flmul@b
  1172  030C  086D               	movf	_foto,w
  1173  030D  00CB               	movwf	??_main
  1174  030E  01CC               	clrf	??_main+1
  1175  030F  01CD               	clrf	??_main+2
  1176  0310  01CE               	clrf	??_main+3
  1177  0311  084E               	movf	??_main+3,w
  1178  0312  00F3               	movwf	___xxtofl@val+3
  1179  0313  084D               	movf	??_main+2,w
  1180  0314  00F2               	movwf	___xxtofl@val+2
  1181  0315  084C               	movf	??_main+1,w
  1182  0316  00F1               	movwf	___xxtofl@val+1
  1183  0317  084B               	movf	??_main,w
  1184  0318  00F0               	movwf	___xxtofl@val
  1185  0319  3001               	movlw	1
  1186  031A  120A  118A  216C  120A  118A  	fcall	___xxtofl
  1187  031F  0873               	movf	?___xxtofl+3,w
  1188  0320  1283               	bcf	3,5	;RP0=0, select bank0
  1189  0321  1303               	bcf	3,6	;RP1=0, select bank0
  1190  0322  00A7               	movwf	___flmul@a+3
  1191  0323  0872               	movf	?___xxtofl+2,w
  1192  0324  00A6               	movwf	___flmul@a+2
  1193  0325  0871               	movf	?___xxtofl+1,w
  1194  0326  00A5               	movwf	___flmul@a+1
  1195  0327  0870               	movf	?___xxtofl,w
  1196  0328  00A4               	movwf	___flmul@a
  1197  0329  120A  118A  2492  120A  118A  	fcall	___flmul
  1198  032E  1283               	bcf	3,5	;RP0=0, select bank0
  1199  032F  1303               	bcf	3,6	;RP1=0, select bank0
  1200  0330  0823               	movf	?___flmul+3,w
  1201  0331  00D2               	movwf	_fotof+3
  1202  0332  0822               	movf	?___flmul+2,w
  1203  0333  00D1               	movwf	_fotof+2
  1204  0334  0821               	movf	?___flmul+1,w
  1205  0335  00D0               	movwf	_fotof+1
  1206  0336  0820               	movf	?___flmul,w
  1207  0337  00CF               	movwf	_fotof
  1208  0338                     l1983:	
  1209                           
  1210                           ;Main_master.c: 81:         unipot = obtener_unidades(potf);
  1211  0338  0856               	movf	_potf+3,w
  1212  0339  00BD               	movwf	___fltol@f1+3
  1213  033A  0855               	movf	_potf+2,w
  1214  033B  00BC               	movwf	___fltol@f1+2
  1215  033C  0854               	movf	_potf+1,w
  1216  033D  00BB               	movwf	___fltol@f1+1
  1217  033E  0853               	movf	_potf,w
  1218  033F  00BA               	movwf	___fltol@f1
  1219  0340  120A  118A  20F0  120A  118A  	fcall	___fltol
  1220  0345  1283               	bcf	3,5	;RP0=0, select bank0
  1221  0346  1303               	bcf	3,6	;RP1=0, select bank0
  1222  0347  083A               	movf	?___fltol,w
  1223  0348  120A  118A  2008  120A  118A  	fcall	_obtener_unidades
  1224  034D  1283               	bcf	3,5	;RP0=0, select bank0
  1225  034E  1303               	bcf	3,6	;RP1=0, select bank0
  1226  034F  00CB               	movwf	??_main
  1227  0350  084B               	movf	??_main,w
  1228  0351  00EB               	movwf	_unipot
  1229  0352                     l1985:	
  1230                           
  1231                           ;Main_master.c: 82:         deci1pot = obtener_decimal_1(potf);
  1232  0352  0856               	movf	_potf+3,w
  1233  0353  00C8               	movwf	obtener_decimal_1@a+3
  1234  0354  0855               	movf	_potf+2,w
  1235  0355  00C7               	movwf	obtener_decimal_1@a+2
  1236  0356  0854               	movf	_potf+1,w
  1237  0357  00C6               	movwf	obtener_decimal_1@a+1
  1238  0358  0853               	movf	_potf,w
  1239  0359  00C5               	movwf	obtener_decimal_1@a
  1240  035A  120A  158A  26D0  120A  118A  	fcall	_obtener_decimal_1
  1241  035F  1283               	bcf	3,5	;RP0=0, select bank0
  1242  0360  1303               	bcf	3,6	;RP1=0, select bank0
  1243  0361  00CB               	movwf	??_main
  1244  0362  084B               	movf	??_main,w
  1245  0363  00EA               	movwf	_deci1pot
  1246  0364                     l1987:	
  1247                           
  1248                           ;Main_master.c: 83:         deci2pot = obtener_decimal_2(potf);
  1249  0364  0856               	movf	_potf+3,w
  1250  0365  00C8               	movwf	obtener_decimal_2@a+3
  1251  0366  0855               	movf	_potf+2,w
  1252  0367  00C7               	movwf	obtener_decimal_2@a+2
  1253  0368  0854               	movf	_potf+1,w
  1254  0369  00C6               	movwf	obtener_decimal_2@a+1
  1255  036A  0853               	movf	_potf,w
  1256  036B  00C5               	movwf	obtener_decimal_2@a
  1257  036C  120A  158A  2711  120A  118A  	fcall	_obtener_decimal_2
  1258  0371  1283               	bcf	3,5	;RP0=0, select bank0
  1259  0372  1303               	bcf	3,6	;RP1=0, select bank0
  1260  0373  00CB               	movwf	??_main
  1261  0374  084B               	movf	??_main,w
  1262  0375  00E9               	movwf	_deci2pot
  1263  0376                     l1989:	
  1264                           
  1265                           ;Main_master.c: 85:         unifoto = obtener_unidades(fotof);
  1266  0376  0852               	movf	_fotof+3,w
  1267  0377  00BD               	movwf	___fltol@f1+3
  1268  0378  0851               	movf	_fotof+2,w
  1269  0379  00BC               	movwf	___fltol@f1+2
  1270  037A  0850               	movf	_fotof+1,w
  1271  037B  00BB               	movwf	___fltol@f1+1
  1272  037C  084F               	movf	_fotof,w
  1273  037D  00BA               	movwf	___fltol@f1
  1274  037E  120A  118A  20F0  120A  118A  	fcall	___fltol
  1275  0383  1283               	bcf	3,5	;RP0=0, select bank0
  1276  0384  1303               	bcf	3,6	;RP1=0, select bank0
  1277  0385  083A               	movf	?___fltol,w
  1278  0386  120A  118A  2008  120A  118A  	fcall	_obtener_unidades
  1279  038B  1283               	bcf	3,5	;RP0=0, select bank0
  1280  038C  1303               	bcf	3,6	;RP1=0, select bank0
  1281  038D  00CB               	movwf	??_main
  1282  038E  084B               	movf	??_main,w
  1283  038F  00E7               	movwf	_unifoto
  1284  0390                     l1991:	
  1285                           
  1286                           ;Main_master.c: 86:         deci1foto = obtener_decimal_1(fotof);
  1287  0390  0852               	movf	_fotof+3,w
  1288  0391  00C8               	movwf	obtener_decimal_1@a+3
  1289  0392  0851               	movf	_fotof+2,w
  1290  0393  00C7               	movwf	obtener_decimal_1@a+2
  1291  0394  0850               	movf	_fotof+1,w
  1292  0395  00C6               	movwf	obtener_decimal_1@a+1
  1293  0396  084F               	movf	_fotof,w
  1294  0397  00C5               	movwf	obtener_decimal_1@a
  1295  0398  120A  158A  26D0  120A  118A  	fcall	_obtener_decimal_1
  1296  039D  1283               	bcf	3,5	;RP0=0, select bank0
  1297  039E  1303               	bcf	3,6	;RP1=0, select bank0
  1298  039F  00CB               	movwf	??_main
  1299  03A0  084B               	movf	??_main,w
  1300  03A1  00E6               	movwf	_deci1foto
  1301  03A2                     l1993:	
  1302                           
  1303                           ;Main_master.c: 87:         deci2foto = obtener_decimal_2(fotof);
  1304  03A2  0852               	movf	_fotof+3,w
  1305  03A3  00C8               	movwf	obtener_decimal_2@a+3
  1306  03A4  0851               	movf	_fotof+2,w
  1307  03A5  00C7               	movwf	obtener_decimal_2@a+2
  1308  03A6  0850               	movf	_fotof+1,w
  1309  03A7  00C6               	movwf	obtener_decimal_2@a+1
  1310  03A8  084F               	movf	_fotof,w
  1311  03A9  00C5               	movwf	obtener_decimal_2@a
  1312  03AA  120A  158A  2711  120A  118A  	fcall	_obtener_decimal_2
  1313  03AF  1283               	bcf	3,5	;RP0=0, select bank0
  1314  03B0  1303               	bcf	3,6	;RP1=0, select bank0
  1315  03B1  00CB               	movwf	??_main
  1316  03B2  084B               	movf	??_main,w
  1317  03B3  00E5               	movwf	_deci2foto
  1318  03B4                     l1995:	
  1319                           
  1320                           ;Main_master.c: 89:         unicont = obtener_unidades(cont);
  1321  03B4  086C               	movf	_cont,w
  1322  03B5  120A  118A  2008  120A  118A  	fcall	_obtener_unidades
  1323  03BA  1283               	bcf	3,5	;RP0=0, select bank0
  1324  03BB  1303               	bcf	3,6	;RP1=0, select bank0
  1325  03BC  00CB               	movwf	??_main
  1326  03BD  084B               	movf	??_main,w
  1327  03BE  00E4               	movwf	_unicont
  1328  03BF                     l1997:	
  1329                           
  1330                           ;Main_master.c: 90:         dececont = obtener_decenas(cont);
  1331  03BF  086C               	movf	_cont,w
  1332  03C0  120A  158A  2604  120A  118A  	fcall	_obtener_decenas
  1333  03C5  1283               	bcf	3,5	;RP0=0, select bank0
  1334  03C6  1303               	bcf	3,6	;RP1=0, select bank0
  1335  03C7  00CB               	movwf	??_main
  1336  03C8  084B               	movf	??_main,w
  1337  03C9  00E3               	movwf	_dececont
  1338  03CA                     l1999:	
  1339                           
  1340                           ;Main_master.c: 92:         charpot1 = convertir_a_ascii(unipot);
  1341  03CA  086B               	movf	_unipot,w
  1342  03CB  120A  158A  2521  120A  118A  	fcall	_convertir_a_ascii
  1343  03D0  1283               	bcf	3,5	;RP0=0, select bank0
  1344  03D1  1303               	bcf	3,6	;RP1=0, select bank0
  1345  03D2  00CB               	movwf	??_main
  1346  03D3  084B               	movf	??_main,w
  1347  03D4  00E1               	movwf	_charpot1
  1348  03D5                     l2001:	
  1349                           
  1350                           ;Main_master.c: 93:         charpot2 = convertir_a_ascii(deci1pot);
  1351  03D5  086A               	movf	_deci1pot,w
  1352  03D6  120A  158A  2521  120A  118A  	fcall	_convertir_a_ascii
  1353  03DB  1283               	bcf	3,5	;RP0=0, select bank0
  1354  03DC  1303               	bcf	3,6	;RP1=0, select bank0
  1355  03DD  00CB               	movwf	??_main
  1356  03DE  084B               	movf	??_main,w
  1357  03DF  00DF               	movwf	_charpot2
  1358  03E0                     l2003:	
  1359                           
  1360                           ;Main_master.c: 94:         charpot3 = convertir_a_ascii(deci2pot);
  1361  03E0  0869               	movf	_deci2pot,w
  1362  03E1  120A  158A  2521  120A  118A  	fcall	_convertir_a_ascii
  1363  03E6  1283               	bcf	3,5	;RP0=0, select bank0
  1364  03E7  1303               	bcf	3,6	;RP1=0, select bank0
  1365  03E8  00CB               	movwf	??_main
  1366  03E9  084B               	movf	??_main,w
  1367  03EA  00DD               	movwf	_charpot3
  1368  03EB                     l2005:	
  1369                           
  1370                           ;Main_master.c: 96:         charfoto1 = convertir_a_ascii(unifoto);
  1371  03EB  0867               	movf	_unifoto,w
  1372  03EC  120A  158A  2521  120A  118A  	fcall	_convertir_a_ascii
  1373  03F1  1283               	bcf	3,5	;RP0=0, select bank0
  1374  03F2  1303               	bcf	3,6	;RP1=0, select bank0
  1375  03F3  00CB               	movwf	??_main
  1376  03F4  084B               	movf	??_main,w
  1377  03F5  00E2               	movwf	_charfoto1
  1378  03F6                     l2007:	
  1379                           
  1380                           ;Main_master.c: 97:         charfoto2 = convertir_a_ascii(deci1foto);
  1381  03F6  0866               	movf	_deci1foto,w
  1382  03F7  120A  158A  2521  120A  118A  	fcall	_convertir_a_ascii
  1383  03FC  1283               	bcf	3,5	;RP0=0, select bank0
  1384  03FD  1303               	bcf	3,6	;RP1=0, select bank0
  1385  03FE  00CB               	movwf	??_main
  1386  03FF  084B               	movf	??_main,w
  1387  0400  00E0               	movwf	_charfoto2
  1388  0401                     l2009:	
  1389                           
  1390                           ;Main_master.c: 98:         charfoto3 = convertir_a_ascii(deci2foto);
  1391  0401  0865               	movf	_deci2foto,w
  1392  0402  120A  158A  2521  120A  118A  	fcall	_convertir_a_ascii
  1393  0407  1283               	bcf	3,5	;RP0=0, select bank0
  1394  0408  1303               	bcf	3,6	;RP1=0, select bank0
  1395  0409  00CB               	movwf	??_main
  1396  040A  084B               	movf	??_main,w
  1397  040B  00DE               	movwf	_charfoto3
  1398  040C                     l2011:	
  1399                           
  1400                           ;Main_master.c: 100:         charcont1 = convertir_a_ascii(unicont);
  1401  040C  0864               	movf	_unicont,w
  1402  040D  120A  158A  2521  120A  118A  	fcall	_convertir_a_ascii
  1403  0412  1283               	bcf	3,5	;RP0=0, select bank0
  1404  0413  1303               	bcf	3,6	;RP1=0, select bank0
  1405  0414  00CB               	movwf	??_main
  1406  0415  084B               	movf	??_main,w
  1407  0416  00DC               	movwf	_charcont1
  1408  0417                     l2013:	
  1409                           
  1410                           ;Main_master.c: 101:         charcont2 = convertir_a_ascii(dececont);
  1411  0417  0863               	movf	_dececont,w
  1412  0418  120A  158A  2521  120A  118A  	fcall	_convertir_a_ascii
  1413  041D  1283               	bcf	3,5	;RP0=0, select bank0
  1414  041E  1303               	bcf	3,6	;RP1=0, select bank0
  1415  041F  00CB               	movwf	??_main
  1416  0420  084B               	movf	??_main,w
  1417  0421  00DB               	movwf	_charcont2
  1418  0422                     l2015:	
  1419                           
  1420                           ;Main_master.c: 103:         LCD_SET_CURSOR (2,1);
  1421  0422  01F3               	clrf	LCD_SET_CURSOR@b
  1422  0423  0AF3               	incf	LCD_SET_CURSOR@b,f
  1423  0424  3002               	movlw	2
  1424  0425  120A  158A  2594  120A  118A  	fcall	_LCD_SET_CURSOR
  1425  042A                     l2017:	
  1426                           
  1427                           ;Main_master.c: 104:         LCD_WRITE_CHAR (charpot1);
  1428  042A  1283               	bcf	3,5	;RP0=0, select bank0
  1429  042B  1303               	bcf	3,6	;RP1=0, select bank0
  1430  042C  0861               	movf	_charpot1,w
  1431  042D  120A  158A  257D  120A  118A  	fcall	_LCD_WRITE_CHAR
  1432                           
  1433                           ;Main_master.c: 105:         LCD_WRITE_STRING(".");
  1434  0432  3012               	movlw	(low ((STR_2-__stringbase)| (0+32768)))& (0+255)
  1435  0433  120A  158A  25B8  120A  118A  	fcall	_LCD_WRITE_STRING
  1436  0438                     l2019:	
  1437                           
  1438                           ;Main_master.c: 106:         LCD_WRITE_CHAR (charpot2);
  1439  0438  1283               	bcf	3,5	;RP0=0, select bank0
  1440  0439  1303               	bcf	3,6	;RP1=0, select bank0
  1441  043A  085F               	movf	_charpot2,w
  1442  043B  120A  158A  257D  120A  118A  	fcall	_LCD_WRITE_CHAR
  1443  0440                     l2021:	
  1444                           
  1445                           ;Main_master.c: 107:         LCD_WRITE_CHAR (charpot3);
  1446  0440  1283               	bcf	3,5	;RP0=0, select bank0
  1447  0441  1303               	bcf	3,6	;RP1=0, select bank0
  1448  0442  085D               	movf	_charpot3,w
  1449  0443  120A  158A  257D  120A  118A  	fcall	_LCD_WRITE_CHAR
  1450  0448                     l2023:	
  1451                           
  1452                           ;Main_master.c: 109:         LCD_SET_CURSOR (2,7);
  1453  0448  3007               	movlw	7
  1454  0449  1283               	bcf	3,5	;RP0=0, select bank0
  1455  044A  1303               	bcf	3,6	;RP1=0, select bank0
  1456  044B  00CB               	movwf	??_main
  1457  044C  084B               	movf	??_main,w
  1458  044D  00F3               	movwf	LCD_SET_CURSOR@b
  1459  044E  3002               	movlw	2
  1460  044F  120A  158A  2594  120A  118A  	fcall	_LCD_SET_CURSOR
  1461  0454                     l2025:	
  1462                           
  1463                           ;Main_master.c: 110:         LCD_WRITE_CHAR (charfoto1);
  1464  0454  1283               	bcf	3,5	;RP0=0, select bank0
  1465  0455  1303               	bcf	3,6	;RP1=0, select bank0
  1466  0456  0862               	movf	_charfoto1,w
  1467  0457  120A  158A  257D  120A  118A  	fcall	_LCD_WRITE_CHAR
  1468                           
  1469                           ;Main_master.c: 111:         LCD_WRITE_STRING(".");
  1470  045C  3012               	movlw	(low ((STR_2-__stringbase)| (0+32768)))& (0+255)
  1471  045D  120A  158A  25B8  120A  118A  	fcall	_LCD_WRITE_STRING
  1472  0462                     l2027:	
  1473                           
  1474                           ;Main_master.c: 112:         LCD_WRITE_CHAR (charfoto2);
  1475  0462  1283               	bcf	3,5	;RP0=0, select bank0
  1476  0463  1303               	bcf	3,6	;RP1=0, select bank0
  1477  0464  0860               	movf	_charfoto2,w
  1478  0465  120A  158A  257D  120A  118A  	fcall	_LCD_WRITE_CHAR
  1479  046A                     l2029:	
  1480                           
  1481                           ;Main_master.c: 113:         LCD_WRITE_CHAR (charfoto3);
  1482  046A  1283               	bcf	3,5	;RP0=0, select bank0
  1483  046B  1303               	bcf	3,6	;RP1=0, select bank0
  1484  046C  085E               	movf	_charfoto3,w
  1485  046D  120A  158A  257D  120A  118A  	fcall	_LCD_WRITE_CHAR
  1486  0472                     l2031:	
  1487                           
  1488                           ;Main_master.c: 115:         LCD_SET_CURSOR (2,13);
  1489  0472  300D               	movlw	13
  1490  0473  1283               	bcf	3,5	;RP0=0, select bank0
  1491  0474  1303               	bcf	3,6	;RP1=0, select bank0
  1492  0475  00CB               	movwf	??_main
  1493  0476  084B               	movf	??_main,w
  1494  0477  00F3               	movwf	LCD_SET_CURSOR@b
  1495  0478  3002               	movlw	2
  1496  0479  120A  158A  2594  120A  118A  	fcall	_LCD_SET_CURSOR
  1497  047E                     l2033:	
  1498                           
  1499                           ;Main_master.c: 116:         LCD_WRITE_CHAR (charcont1);
  1500  047E  1283               	bcf	3,5	;RP0=0, select bank0
  1501  047F  1303               	bcf	3,6	;RP1=0, select bank0
  1502  0480  085C               	movf	_charcont1,w
  1503  0481  120A  158A  257D  120A  118A  	fcall	_LCD_WRITE_CHAR
  1504  0486                     l2035:	
  1505                           
  1506                           ;Main_master.c: 117:         LCD_WRITE_CHAR (charcont2);
  1507  0486  1283               	bcf	3,5	;RP0=0, select bank0
  1508  0487  1303               	bcf	3,6	;RP1=0, select bank0
  1509  0488  085B               	movf	_charcont2,w
  1510  0489  120A  158A  257D  120A  118A  	fcall	_LCD_WRITE_CHAR
  1511  048E  2A3F               	goto	l1945
  1512  048F  120A  118A  2800   	ljmp	start
  1513  0492                     __end_of_main:	
  1514                           
  1515                           	psect	text1
  1516  0008                     __ptext1:	
  1517 ;; *************** function _obtener_unidades *****************
  1518 ;; Defined at:
  1519 ;;		line 131 in file "Main_master.c"
  1520 ;; Parameters:    Size  Location     Type
  1521 ;;  a               1    wreg     unsigned char 
  1522 ;; Auto vars:     Size  Location     Type
  1523 ;;  a               1    5[BANK0 ] unsigned char 
  1524 ;;  temporal        1    6[BANK0 ] unsigned char 
  1525 ;; Return value:  Size  Location     Type
  1526 ;;                  1    wreg      unsigned char 
  1527 ;; Registers used:
  1528 ;;		wreg, status,2, status,0, pclath, cstack
  1529 ;; Tracked objects:
  1530 ;;		On entry : 0/0
  1531 ;;		On exit  : 0/0
  1532 ;;		Unchanged: 0/0
  1533 ;; Data sizes:     COMMON   BANK0   BANK1   BANK3   BANK2
  1534 ;;      Params:         0       0       0       0       0
  1535 ;;      Locals:         0       2       0       0       0
  1536 ;;      Temps:          0       3       0       0       0
  1537 ;;      Totals:         0       5       0       0       0
  1538 ;;Total ram usage:        5 bytes
  1539 ;; Hardware stack levels used:    1
  1540 ;; Hardware stack levels required when called:    1
  1541 ;; This function calls:
  1542 ;;		___awmod
  1543 ;; This function is called by:
  1544 ;;		_main
  1545 ;; This function uses a non-reentrant model
  1546 ;;
  1547                           
  1548                           
  1549                           ;psect for function _obtener_unidades
  1550  0008                     _obtener_unidades:	
  1551                           
  1552                           ;incstack = 0
  1553                           ; Regs used in _obtener_unidades: [wreg+status,2+status,0+pclath+cstack]
  1554                           ;obtener_unidades@a stored from wreg
  1555  0008  1283               	bcf	3,5	;RP0=0, select bank0
  1556  0009  1303               	bcf	3,6	;RP1=0, select bank0
  1557  000A  00A5               	movwf	obtener_unidades@a
  1558  000B                     l1861:	
  1559                           
  1560                           ;Main_master.c: 132:     uint8_t temporal;;Main_master.c: 133:     temporal = a%10;
  1561  000B  300A               	movlw	10
  1562  000C  00F9               	movwf	___awmod@divisor
  1563  000D  3000               	movlw	0
  1564  000E  00FA               	movwf	___awmod@divisor+1
  1565  000F  0825               	movf	obtener_unidades@a,w
  1566  0010  00A2               	movwf	??_obtener_unidades
  1567  0011  01A3               	clrf	??_obtener_unidades+1
  1568  0012  0822               	movf	??_obtener_unidades,w
  1569  0013  00FB               	movwf	___awmod@dividend
  1570  0014  0823               	movf	??_obtener_unidades+1,w
  1571  0015  00FC               	movwf	___awmod@dividend+1
  1572  0016  120A  158A  27A5  120A  118A  	fcall	___awmod
  1573  001B  0879               	movf	?___awmod,w
  1574  001C  1283               	bcf	3,5	;RP0=0, select bank0
  1575  001D  1303               	bcf	3,6	;RP1=0, select bank0
  1576  001E  00A4               	movwf	??_obtener_unidades+2
  1577  001F  0824               	movf	??_obtener_unidades+2,w
  1578  0020  00A6               	movwf	obtener_unidades@temporal
  1579  0021                     l1863:	
  1580                           
  1581                           ;Main_master.c: 134:     return temporal;
  1582  0021  0826               	movf	obtener_unidades@temporal,w
  1583  0022                     l108:	
  1584  0022  0008               	return
  1585  0023                     __end_of_obtener_unidades:	
  1586                           
  1587                           	psect	text2
  1588  0F11                     __ptext2:	
  1589 ;; *************** function _obtener_decimal_2 *****************
  1590 ;; Defined at:
  1591 ;;		line 148 in file "Main_master.c"
  1592 ;; Parameters:    Size  Location     Type
  1593 ;;  a               4   37[BANK0 ] float 
  1594 ;; Auto vars:     Size  Location     Type
  1595 ;;  temporal        2   41[BANK0 ] unsigned int 
  1596 ;; Return value:  Size  Location     Type
  1597 ;;                  1    wreg      unsigned char 
  1598 ;; Registers used:
  1599 ;;		wreg, status,2, status,0, btemp+1, pclath, cstack
  1600 ;; Tracked objects:
  1601 ;;		On entry : 0/0
  1602 ;;		On exit  : 0/0
  1603 ;;		Unchanged: 0/0
  1604 ;; Data sizes:     COMMON   BANK0   BANK1   BANK3   BANK2
  1605 ;;      Params:         0       4       0       0       0
  1606 ;;      Locals:         0       2       0       0       0
  1607 ;;      Temps:          0       0       0       0       0
  1608 ;;      Totals:         0       6       0       0       0
  1609 ;;Total ram usage:        6 bytes
  1610 ;; Hardware stack levels used:    1
  1611 ;; Hardware stack levels required when called:    2
  1612 ;; This function calls:
  1613 ;;		___flmul
  1614 ;;		___fltol
  1615 ;;		___lwmod
  1616 ;; This function is called by:
  1617 ;;		_main
  1618 ;; This function uses a non-reentrant model
  1619 ;;
  1620                           
  1621                           
  1622                           ;psect for function _obtener_decimal_2
  1623  0F11                     _obtener_decimal_2:	
  1624  0F11                     l1875:	
  1625                           ;incstack = 0
  1626                           ; Regs used in _obtener_decimal_2: [wreg+status,2+status,0+btemp+1+pclath+cstack]
  1627                           
  1628                           
  1629                           ;Main_master.c: 149:     uint16_t temporal;;Main_master.c: 150:     temporal = (a*100);
  1630  0F11  1283               	bcf	3,5	;RP0=0, select bank0
  1631  0F12  1303               	bcf	3,6	;RP1=0, select bank0
  1632  0F13  0848               	movf	obtener_decimal_2@a+3,w
  1633  0F14  00A7               	movwf	___flmul@a+3
  1634  0F15  0847               	movf	obtener_decimal_2@a+2,w
  1635  0F16  00A6               	movwf	___flmul@a+2
  1636  0F17  0846               	movf	obtener_decimal_2@a+1,w
  1637  0F18  00A5               	movwf	___flmul@a+1
  1638  0F19  0845               	movf	obtener_decimal_2@a,w
  1639  0F1A  00A4               	movwf	___flmul@a
  1640  0F1B  3042               	movlw	66
  1641  0F1C  00A3               	movwf	___flmul@b+3
  1642  0F1D  30C8               	movlw	200
  1643  0F1E  00A2               	movwf	___flmul@b+2
  1644  0F1F  3000               	movlw	0
  1645  0F20  00A1               	movwf	___flmul@b+1
  1646  0F21  3000               	movlw	0
  1647  0F22  00A0               	movwf	___flmul@b
  1648  0F23  120A  118A  2492  120A  158A  	fcall	___flmul
  1649  0F28  1283               	bcf	3,5	;RP0=0, select bank0
  1650  0F29  1303               	bcf	3,6	;RP1=0, select bank0
  1651  0F2A  0823               	movf	?___flmul+3,w
  1652  0F2B  00BD               	movwf	___fltol@f1+3
  1653  0F2C  0822               	movf	?___flmul+2,w
  1654  0F2D  00BC               	movwf	___fltol@f1+2
  1655  0F2E  0821               	movf	?___flmul+1,w
  1656  0F2F  00BB               	movwf	___fltol@f1+1
  1657  0F30  0820               	movf	?___flmul,w
  1658  0F31  00BA               	movwf	___fltol@f1
  1659  0F32  120A  118A  20F0  120A  158A  	fcall	___fltol
  1660  0F37  1283               	bcf	3,5	;RP0=0, select bank0
  1661  0F38  1303               	bcf	3,6	;RP1=0, select bank0
  1662  0F39  083B               	movf	?___fltol+1,w
  1663  0F3A  00CA               	movwf	obtener_decimal_2@temporal+1
  1664  0F3B  083A               	movf	?___fltol,w
  1665  0F3C  00C9               	movwf	obtener_decimal_2@temporal
  1666  0F3D                     l1877:	
  1667                           
  1668                           ;Main_master.c: 151:     temporal = temporal%10;
  1669  0F3D  300A               	movlw	10
  1670  0F3E  00F0               	movwf	___lwmod@divisor
  1671  0F3F  3000               	movlw	0
  1672  0F40  00F1               	movwf	___lwmod@divisor+1
  1673  0F41  084A               	movf	obtener_decimal_2@temporal+1,w
  1674  0F42  00F3               	movwf	___lwmod@dividend+1
  1675  0F43  0849               	movf	obtener_decimal_2@temporal,w
  1676  0F44  00F2               	movwf	___lwmod@dividend
  1677  0F45  120A  158A  265A  120A  158A  	fcall	___lwmod
  1678  0F4A  0871               	movf	?___lwmod+1,w
  1679  0F4B  1283               	bcf	3,5	;RP0=0, select bank0
  1680  0F4C  1303               	bcf	3,6	;RP1=0, select bank0
  1681  0F4D  00CA               	movwf	obtener_decimal_2@temporal+1
  1682  0F4E  0870               	movf	?___lwmod,w
  1683  0F4F  00C9               	movwf	obtener_decimal_2@temporal
  1684  0F50                     l1879:	
  1685                           
  1686                           ;Main_master.c: 152:     return temporal;
  1687  0F50  0849               	movf	obtener_decimal_2@temporal,w
  1688  0F51                     l117:	
  1689  0F51  0008               	return
  1690  0F52                     __end_of_obtener_decimal_2:	
  1691                           
  1692                           	psect	text3
  1693  0ED0                     __ptext3:	
  1694 ;; *************** function _obtener_decimal_1 *****************
  1695 ;; Defined at:
  1696 ;;		line 142 in file "Main_master.c"
  1697 ;; Parameters:    Size  Location     Type
  1698 ;;  a               4   37[BANK0 ] float 
  1699 ;; Auto vars:     Size  Location     Type
  1700 ;;  temporal        2   41[BANK0 ] unsigned int 
  1701 ;; Return value:  Size  Location     Type
  1702 ;;                  1    wreg      unsigned char 
  1703 ;; Registers used:
  1704 ;;		wreg, status,2, status,0, btemp+1, pclath, cstack
  1705 ;; Tracked objects:
  1706 ;;		On entry : 0/0
  1707 ;;		On exit  : 0/0
  1708 ;;		Unchanged: 0/0
  1709 ;; Data sizes:     COMMON   BANK0   BANK1   BANK3   BANK2
  1710 ;;      Params:         0       4       0       0       0
  1711 ;;      Locals:         0       2       0       0       0
  1712 ;;      Temps:          0       0       0       0       0
  1713 ;;      Totals:         0       6       0       0       0
  1714 ;;Total ram usage:        6 bytes
  1715 ;; Hardware stack levels used:    1
  1716 ;; Hardware stack levels required when called:    2
  1717 ;; This function calls:
  1718 ;;		___flmul
  1719 ;;		___fltol
  1720 ;;		___lwmod
  1721 ;; This function is called by:
  1722 ;;		_main
  1723 ;; This function uses a non-reentrant model
  1724 ;;
  1725                           
  1726                           
  1727                           ;psect for function _obtener_decimal_1
  1728  0ED0                     _obtener_decimal_1:	
  1729  0ED0                     l1867:	
  1730                           ;incstack = 0
  1731                           ; Regs used in _obtener_decimal_1: [wreg+status,2+status,0+btemp+1+pclath+cstack]
  1732                           
  1733                           
  1734                           ;Main_master.c: 143:     uint16_t temporal;;Main_master.c: 144:     temporal = (a*10);
  1735  0ED0  1283               	bcf	3,5	;RP0=0, select bank0
  1736  0ED1  1303               	bcf	3,6	;RP1=0, select bank0
  1737  0ED2  0848               	movf	obtener_decimal_1@a+3,w
  1738  0ED3  00A7               	movwf	___flmul@a+3
  1739  0ED4  0847               	movf	obtener_decimal_1@a+2,w
  1740  0ED5  00A6               	movwf	___flmul@a+2
  1741  0ED6  0846               	movf	obtener_decimal_1@a+1,w
  1742  0ED7  00A5               	movwf	___flmul@a+1
  1743  0ED8  0845               	movf	obtener_decimal_1@a,w
  1744  0ED9  00A4               	movwf	___flmul@a
  1745  0EDA  3041               	movlw	65
  1746  0EDB  00A3               	movwf	___flmul@b+3
  1747  0EDC  3020               	movlw	32
  1748  0EDD  00A2               	movwf	___flmul@b+2
  1749  0EDE  3000               	movlw	0
  1750  0EDF  00A1               	movwf	___flmul@b+1
  1751  0EE0  3000               	movlw	0
  1752  0EE1  00A0               	movwf	___flmul@b
  1753  0EE2  120A  118A  2492  120A  158A  	fcall	___flmul
  1754  0EE7  1283               	bcf	3,5	;RP0=0, select bank0
  1755  0EE8  1303               	bcf	3,6	;RP1=0, select bank0
  1756  0EE9  0823               	movf	?___flmul+3,w
  1757  0EEA  00BD               	movwf	___fltol@f1+3
  1758  0EEB  0822               	movf	?___flmul+2,w
  1759  0EEC  00BC               	movwf	___fltol@f1+2
  1760  0EED  0821               	movf	?___flmul+1,w
  1761  0EEE  00BB               	movwf	___fltol@f1+1
  1762  0EEF  0820               	movf	?___flmul,w
  1763  0EF0  00BA               	movwf	___fltol@f1
  1764  0EF1  120A  118A  20F0  120A  158A  	fcall	___fltol
  1765  0EF6  1283               	bcf	3,5	;RP0=0, select bank0
  1766  0EF7  1303               	bcf	3,6	;RP1=0, select bank0
  1767  0EF8  083B               	movf	?___fltol+1,w
  1768  0EF9  00CA               	movwf	obtener_decimal_1@temporal+1
  1769  0EFA  083A               	movf	?___fltol,w
  1770  0EFB  00C9               	movwf	obtener_decimal_1@temporal
  1771  0EFC                     l1869:	
  1772                           
  1773                           ;Main_master.c: 145:     temporal = temporal%10;
  1774  0EFC  300A               	movlw	10
  1775  0EFD  00F0               	movwf	___lwmod@divisor
  1776  0EFE  3000               	movlw	0
  1777  0EFF  00F1               	movwf	___lwmod@divisor+1
  1778  0F00  084A               	movf	obtener_decimal_1@temporal+1,w
  1779  0F01  00F3               	movwf	___lwmod@dividend+1
  1780  0F02  0849               	movf	obtener_decimal_1@temporal,w
  1781  0F03  00F2               	movwf	___lwmod@dividend
  1782  0F04  120A  158A  265A  120A  158A  	fcall	___lwmod
  1783  0F09  0871               	movf	?___lwmod+1,w
  1784  0F0A  1283               	bcf	3,5	;RP0=0, select bank0
  1785  0F0B  1303               	bcf	3,6	;RP1=0, select bank0
  1786  0F0C  00CA               	movwf	obtener_decimal_1@temporal+1
  1787  0F0D  0870               	movf	?___lwmod,w
  1788  0F0E  00C9               	movwf	obtener_decimal_1@temporal
  1789  0F0F                     l1871:	
  1790                           
  1791                           ;Main_master.c: 146:     return temporal;
  1792  0F0F  0849               	movf	obtener_decimal_1@temporal,w
  1793  0F10                     l114:	
  1794  0F10  0008               	return
  1795  0F11                     __end_of_obtener_decimal_1:	
  1796                           
  1797                           	psect	text4
  1798  0E5A                     __ptext4:	
  1799 ;; *************** function ___lwmod *****************
  1800 ;; Defined at:
  1801 ;;		line 5 in file "C:\Program Files (x86)\Microchip\xc8\v2.10\pic\sources\c90\common\lwmod.c"
  1802 ;; Parameters:    Size  Location     Type
  1803 ;;  divisor         2    0[COMMON] unsigned int 
  1804 ;;  dividend        2    2[COMMON] unsigned int 
  1805 ;; Auto vars:     Size  Location     Type
  1806 ;;  counter         1    5[COMMON] unsigned char 
  1807 ;; Return value:  Size  Location     Type
  1808 ;;                  2    0[COMMON] unsigned int 
  1809 ;; Registers used:
  1810 ;;		wreg, status,2, status,0
  1811 ;; Tracked objects:
  1812 ;;		On entry : 0/0
  1813 ;;		On exit  : 0/0
  1814 ;;		Unchanged: 0/0
  1815 ;; Data sizes:     COMMON   BANK0   BANK1   BANK3   BANK2
  1816 ;;      Params:         4       0       0       0       0
  1817 ;;      Locals:         1       0       0       0       0
  1818 ;;      Temps:          1       0       0       0       0
  1819 ;;      Totals:         6       0       0       0       0
  1820 ;;Total ram usage:        6 bytes
  1821 ;; Hardware stack levels used:    1
  1822 ;; This function calls:
  1823 ;;		Nothing
  1824 ;; This function is called by:
  1825 ;;		_obtener_decimal_1
  1826 ;;		_obtener_decimal_2
  1827 ;; This function uses a non-reentrant model
  1828 ;;
  1829                           
  1830                           
  1831                           ;psect for function ___lwmod
  1832  0E5A                     ___lwmod:	
  1833  0E5A                     l1609:	
  1834                           ;incstack = 0
  1835                           ; Regs used in ___lwmod: [wreg+status,2+status,0]
  1836                           
  1837  0E5A  0870               	movf	___lwmod@divisor,w
  1838  0E5B  0471               	iorwf	___lwmod@divisor+1,w
  1839  0E5C  1903               	btfsc	3,2
  1840  0E5D  2E5F               	goto	u1451
  1841  0E5E  2E60               	goto	u1450
  1842  0E5F                     u1451:	
  1843  0E5F  2E8F               	goto	l1627
  1844  0E60                     u1450:	
  1845  0E60                     l1611:	
  1846  0E60  01F5               	clrf	___lwmod@counter
  1847  0E61  0AF5               	incf	___lwmod@counter,f
  1848  0E62  2E6E               	goto	l1617
  1849  0E63                     l1613:	
  1850  0E63  3001               	movlw	1
  1851  0E64                     u1465:	
  1852  0E64  1003               	clrc
  1853  0E65  0DF0               	rlf	___lwmod@divisor,f
  1854  0E66  0DF1               	rlf	___lwmod@divisor+1,f
  1855  0E67  3EFF               	addlw	-1
  1856  0E68  1D03               	skipz
  1857  0E69  2E64               	goto	u1465
  1858  0E6A                     l1615:	
  1859  0E6A  3001               	movlw	1
  1860  0E6B  00F4               	movwf	??___lwmod
  1861  0E6C  0874               	movf	??___lwmod,w
  1862  0E6D  07F5               	addwf	___lwmod@counter,f
  1863  0E6E                     l1617:	
  1864  0E6E  1FF1               	btfss	___lwmod@divisor+1,7
  1865  0E6F  2E71               	goto	u1471
  1866  0E70  2E72               	goto	u1470
  1867  0E71                     u1471:	
  1868  0E71  2E63               	goto	l1613
  1869  0E72                     u1470:	
  1870  0E72                     l1619:	
  1871  0E72  0871               	movf	___lwmod@divisor+1,w
  1872  0E73  0273               	subwf	___lwmod@dividend+1,w
  1873  0E74  1D03               	skipz
  1874  0E75  2E78               	goto	u1485
  1875  0E76  0870               	movf	___lwmod@divisor,w
  1876  0E77  0272               	subwf	___lwmod@dividend,w
  1877  0E78                     u1485:	
  1878  0E78  1C03               	skipc
  1879  0E79  2E7B               	goto	u1481
  1880  0E7A  2E7C               	goto	u1480
  1881  0E7B                     u1481:	
  1882  0E7B  2E82               	goto	l1623
  1883  0E7C                     u1480:	
  1884  0E7C                     l1621:	
  1885  0E7C  0870               	movf	___lwmod@divisor,w
  1886  0E7D  02F2               	subwf	___lwmod@dividend,f
  1887  0E7E  0871               	movf	___lwmod@divisor+1,w
  1888  0E7F  1C03               	skipc
  1889  0E80  03F3               	decf	___lwmod@dividend+1,f
  1890  0E81  02F3               	subwf	___lwmod@dividend+1,f
  1891  0E82                     l1623:	
  1892  0E82  3001               	movlw	1
  1893  0E83                     u1495:	
  1894  0E83  1003               	clrc
  1895  0E84  0CF1               	rrf	___lwmod@divisor+1,f
  1896  0E85  0CF0               	rrf	___lwmod@divisor,f
  1897  0E86  3EFF               	addlw	-1
  1898  0E87  1D03               	skipz
  1899  0E88  2E83               	goto	u1495
  1900  0E89                     l1625:	
  1901  0E89  3001               	movlw	1
  1902  0E8A  02F5               	subwf	___lwmod@counter,f
  1903  0E8B  1D03               	btfss	3,2
  1904  0E8C  2E8E               	goto	u1501
  1905  0E8D  2E8F               	goto	u1500
  1906  0E8E                     u1501:	
  1907  0E8E  2E72               	goto	l1619
  1908  0E8F                     u1500:	
  1909  0E8F                     l1627:	
  1910  0E8F  0873               	movf	___lwmod@dividend+1,w
  1911  0E90  00F1               	movwf	?___lwmod+1
  1912  0E91  0872               	movf	___lwmod@dividend,w
  1913  0E92  00F0               	movwf	?___lwmod
  1914  0E93                     l577:	
  1915  0E93  0008               	return
  1916  0E94                     __end_of___lwmod:	
  1917                           
  1918                           	psect	text5
  1919  00F0                     __ptext5:	
  1920 ;; *************** function ___fltol *****************
  1921 ;; Defined at:
  1922 ;;		line 43 in file "C:\Program Files (x86)\Microchip\xc8\v2.10\pic\sources\c90\common\fltol.c"
  1923 ;; Parameters:    Size  Location     Type
  1924 ;;  f1              4   26[BANK0 ] unsigned int 
  1925 ;; Auto vars:     Size  Location     Type
  1926 ;;  exp1            1   36[BANK0 ] unsigned char 
  1927 ;;  sign1           1   35[BANK0 ] unsigned char 
  1928 ;; Return value:  Size  Location     Type
  1929 ;;                  4   26[BANK0 ] long 
  1930 ;; Registers used:
  1931 ;;		wreg, status,2, status,0
  1932 ;; Tracked objects:
  1933 ;;		On entry : 0/0
  1934 ;;		On exit  : 0/0
  1935 ;;		Unchanged: 0/0
  1936 ;; Data sizes:     COMMON   BANK0   BANK1   BANK3   BANK2
  1937 ;;      Params:         0       4       0       0       0
  1938 ;;      Locals:         0       2       0       0       0
  1939 ;;      Temps:          0       5       0       0       0
  1940 ;;      Totals:         0      11       0       0       0
  1941 ;;Total ram usage:       11 bytes
  1942 ;; Hardware stack levels used:    1
  1943 ;; This function calls:
  1944 ;;		Nothing
  1945 ;; This function is called by:
  1946 ;;		_main
  1947 ;;		_obtener_decimal_1
  1948 ;;		_obtener_decimal_2
  1949 ;; This function uses a non-reentrant model
  1950 ;;
  1951                           
  1952                           
  1953                           ;psect for function ___fltol
  1954  00F0                     ___fltol:	
  1955  00F0                     l1573:	
  1956                           ;incstack = 0
  1957                           ; Regs used in ___fltol: [wreg+status,2+status,0]
  1958                           
  1959  00F0  1003               	clrc
  1960  00F1  1283               	bcf	3,5	;RP0=0, select bank0
  1961  00F2  1303               	bcf	3,6	;RP1=0, select bank0
  1962  00F3  0D3C               	rlf	___fltol@f1+2,w
  1963  00F4  0D3D               	rlf	___fltol@f1+3,w
  1964  00F5  00BE               	movwf	??___fltol
  1965  00F6  083E               	movf	??___fltol,w
  1966  00F7  00C4               	movwf	___fltol@exp1
  1967  00F8  0844               	movf	___fltol@exp1,w
  1968  00F9  1D03               	btfss	3,2
  1969  00FA  28FC               	goto	u1351
  1970  00FB  28FD               	goto	u1350
  1971  00FC                     u1351:	
  1972  00FC  2906               	goto	l1579
  1973  00FD                     u1350:	
  1974  00FD                     l1575:	
  1975  00FD  3000               	movlw	0
  1976  00FE  00BD               	movwf	?___fltol+3
  1977  00FF  3000               	movlw	0
  1978  0100  00BC               	movwf	?___fltol+2
  1979  0101  3000               	movlw	0
  1980  0102  00BB               	movwf	?___fltol+1
  1981  0103  3000               	movlw	0
  1982  0104  00BA               	movwf	?___fltol
  1983  0105  296B               	goto	l481
  1984  0106                     l1579:	
  1985  0106  083A               	movf	___fltol@f1,w
  1986  0107  00BE               	movwf	??___fltol
  1987  0108  083B               	movf	___fltol@f1+1,w
  1988  0109  00BF               	movwf	??___fltol+1
  1989  010A  083C               	movf	___fltol@f1+2,w
  1990  010B  00C0               	movwf	??___fltol+2
  1991  010C  083D               	movf	___fltol@f1+3,w
  1992  010D  00C1               	movwf	??___fltol+3
  1993  010E  301F               	movlw	31
  1994  010F                     u1365:	
  1995  010F  1003               	clrc
  1996  0110  0CC1               	rrf	??___fltol+3,f
  1997  0111  0CC0               	rrf	??___fltol+2,f
  1998  0112  0CBF               	rrf	??___fltol+1,f
  1999  0113  0CBE               	rrf	??___fltol,f
  2000  0114                     u1360:	
  2001  0114  3EFF               	addlw	-1
  2002  0115  1D03               	skipz
  2003  0116  290F               	goto	u1365
  2004  0117  083E               	movf	??___fltol,w
  2005  0118  00C2               	movwf	??___fltol+4
  2006  0119  0842               	movf	??___fltol+4,w
  2007  011A  00C3               	movwf	___fltol@sign1
  2008  011B                     l1581:	
  2009  011B  17BC               	bsf	___fltol@f1+2,7
  2010  011C                     l1583:	
  2011  011C  30FF               	movlw	255
  2012  011D  05BA               	andwf	___fltol@f1,f
  2013  011E  30FF               	movlw	255
  2014  011F  05BB               	andwf	___fltol@f1+1,f
  2015  0120  30FF               	movlw	255
  2016  0121  05BC               	andwf	___fltol@f1+2,f
  2017  0122  3000               	movlw	0
  2018  0123  05BD               	andwf	___fltol@f1+3,f
  2019  0124                     l1585:	
  2020  0124  3096               	movlw	150
  2021  0125  02C4               	subwf	___fltol@exp1,f
  2022  0126                     l1587:	
  2023  0126  1FC4               	btfss	___fltol@exp1,7
  2024  0127  2929               	goto	u1371
  2025  0128  292A               	goto	u1370
  2026  0129                     u1371:	
  2027  0129  2944               	goto	l1597
  2028  012A                     u1370:	
  2029  012A                     l1589:	
  2030  012A  0844               	movf	___fltol@exp1,w
  2031  012B  3A80               	xorlw	128
  2032  012C  3E97               	addlw	151
  2033  012D  1803               	skipnc
  2034  012E  2930               	goto	u1381
  2035  012F  2931               	goto	u1380
  2036  0130                     u1381:	
  2037  0130  2932               	goto	l1595
  2038  0131                     u1380:	
  2039  0131  28FD               	goto	l1575
  2040  0132                     l1595:	
  2041  0132  3001               	movlw	1
  2042  0133                     u1395:	
  2043  0133  1003               	clrc
  2044  0134  0CBD               	rrf	___fltol@f1+3,f
  2045  0135  0CBC               	rrf	___fltol@f1+2,f
  2046  0136  0CBB               	rrf	___fltol@f1+1,f
  2047  0137  0CBA               	rrf	___fltol@f1,f
  2048  0138  3EFF               	addlw	-1
  2049  0139  1D03               	skipz
  2050  013A  2933               	goto	u1395
  2051  013B  3001               	movlw	1
  2052  013C  00BE               	movwf	??___fltol
  2053  013D  083E               	movf	??___fltol,w
  2054  013E  07C4               	addwf	___fltol@exp1,f
  2055  013F  1D03               	btfss	3,2
  2056  0140  2942               	goto	u1401
  2057  0141  2943               	goto	u1400
  2058  0142                     u1401:	
  2059  0142  2932               	goto	l1595
  2060  0143                     u1400:	
  2061  0143  295B               	goto	l1605
  2062  0144                     l1597:	
  2063  0144  3020               	movlw	32
  2064  0145  0244               	subwf	___fltol@exp1,w
  2065  0146  1C03               	skipc
  2066  0147  2949               	goto	u1411
  2067  0148  294A               	goto	u1410
  2068  0149                     u1411:	
  2069  0149  2956               	goto	l488
  2070  014A                     u1410:	
  2071  014A  28FD               	goto	l1575
  2072  014B                     l1603:	
  2073  014B  3001               	movlw	1
  2074  014C  00BE               	movwf	??___fltol
  2075  014D                     u1425:	
  2076  014D  1003               	clrc
  2077  014E  0DBA               	rlf	___fltol@f1,f
  2078  014F  0DBB               	rlf	___fltol@f1+1,f
  2079  0150  0DBC               	rlf	___fltol@f1+2,f
  2080  0151  0DBD               	rlf	___fltol@f1+3,f
  2081  0152  0BBE               	decfsz	??___fltol,f
  2082  0153  294D               	goto	u1425
  2083  0154  3001               	movlw	1
  2084  0155  02C4               	subwf	___fltol@exp1,f
  2085  0156                     l488:	
  2086  0156  0844               	movf	___fltol@exp1,w
  2087  0157  1D03               	btfss	3,2
  2088  0158  295A               	goto	u1431
  2089  0159  295B               	goto	u1430
  2090  015A                     u1431:	
  2091  015A  294B               	goto	l1603
  2092  015B                     u1430:	
  2093  015B                     l1605:	
  2094  015B  0843               	movf	___fltol@sign1,w
  2095  015C  1903               	btfsc	3,2
  2096  015D  295F               	goto	u1441
  2097  015E  2960               	goto	u1440
  2098  015F                     u1441:	
  2099  015F  296B               	goto	l491
  2100  0160                     u1440:	
  2101  0160                     l1607:	
  2102  0160  09BA               	comf	___fltol@f1,f
  2103  0161  09BB               	comf	___fltol@f1+1,f
  2104  0162  09BC               	comf	___fltol@f1+2,f
  2105  0163  09BD               	comf	___fltol@f1+3,f
  2106  0164  0ABA               	incf	___fltol@f1,f
  2107  0165  1903               	skipnz
  2108  0166  0ABB               	incf	___fltol@f1+1,f
  2109  0167  1903               	skipnz
  2110  0168  0ABC               	incf	___fltol@f1+2,f
  2111  0169  1903               	skipnz
  2112  016A  0ABD               	incf	___fltol@f1+3,f
  2113  016B                     l491:	
  2114  016B                     l481:	
  2115  016B  0008               	return
  2116  016C                     __end_of___fltol:	
  2117                           
  2118                           	psect	text6
  2119  0492                     __ptext6:	
  2120 ;; *************** function ___flmul *****************
  2121 ;; Defined at:
  2122 ;;		line 8 in file "C:\Program Files (x86)\Microchip\xc8\v2.10\pic\sources\c90\common\sprcmul.c"
  2123 ;; Parameters:    Size  Location     Type
  2124 ;;  b               4    0[BANK0 ] long 
  2125 ;;  a               4    4[BANK0 ] long 
  2126 ;; Auto vars:     Size  Location     Type
  2127 ;;  prod            4   20[BANK0 ] struct .
  2128 ;;  grs             4   14[BANK0 ] unsigned long 
  2129 ;;  temp            2   24[BANK0 ] struct .
  2130 ;;  bexp            1   19[BANK0 ] unsigned char 
  2131 ;;  aexp            1   18[BANK0 ] unsigned char 
  2132 ;;  sign            1   13[BANK0 ] unsigned char 
  2133 ;; Return value:  Size  Location     Type
  2134 ;;                  4    0[BANK0 ] unsigned char 
  2135 ;; Registers used:
  2136 ;;		wreg, status,2, status,0, btemp+1, pclath, cstack
  2137 ;; Tracked objects:
  2138 ;;		On entry : 0/0
  2139 ;;		On exit  : 0/0
  2140 ;;		Unchanged: 0/0
  2141 ;; Data sizes:     COMMON   BANK0   BANK1   BANK3   BANK2
  2142 ;;      Params:         0       8       0       0       0
  2143 ;;      Locals:         0      13       0       0       0
  2144 ;;      Temps:          0       5       0       0       0
  2145 ;;      Totals:         0      26       0       0       0
  2146 ;;Total ram usage:       26 bytes
  2147 ;; Hardware stack levels used:    1
  2148 ;; Hardware stack levels required when called:    1
  2149 ;; This function calls:
  2150 ;;		__Umul8_16
  2151 ;; This function is called by:
  2152 ;;		_main
  2153 ;;		_obtener_decimal_1
  2154 ;;		_obtener_decimal_2
  2155 ;; This function uses a non-reentrant model
  2156 ;;
  2157                           
  2158                           
  2159                           ;psect for function ___flmul
  2160  0492                     ___flmul:	
  2161  0492                     l1631:	
  2162                           ;incstack = 0
  2163                           ; Regs used in ___flmul: [wreg+status,2+status,0+btemp+1+pclath+cstack]
  2164                           
  2165  0492  1283               	bcf	3,5	;RP0=0, select bank0
  2166  0493  1303               	bcf	3,6	;RP1=0, select bank0
  2167  0494  0823               	movf	___flmul@b+3,w
  2168  0495  3980               	andlw	128
  2169  0496  00A8               	movwf	??___flmul
  2170  0497  0828               	movf	??___flmul,w
  2171  0498  00AD               	movwf	___flmul@sign
  2172  0499                     l1633:	
  2173  0499  0823               	movf	___flmul@b+3,w
  2174  049A  00A8               	movwf	??___flmul
  2175  049B  0728               	addwf	??___flmul,w
  2176  049C  00A9               	movwf	??___flmul+1
  2177  049D  0829               	movf	??___flmul+1,w
  2178  049E  00B3               	movwf	___flmul@bexp
  2179  049F                     l1635:	
  2180  049F  1FA2               	btfss	___flmul@b+2,7
  2181  04A0  2CA2               	goto	u1511
  2182  04A1  2CA3               	goto	u1510
  2183  04A2                     u1511:	
  2184  04A2  2CA4               	goto	l1639
  2185  04A3                     u1510:	
  2186  04A3                     l1637:	
  2187  04A3  1433               	bsf	___flmul@bexp,0
  2188  04A4                     l1639:	
  2189  04A4  0833               	movf	___flmul@bexp,w
  2190  04A5  1903               	btfsc	3,2
  2191  04A6  2CA8               	goto	u1521
  2192  04A7  2CA9               	goto	u1520
  2193  04A8                     u1521:	
  2194  04A8  2CB8               	goto	l1647
  2195  04A9                     u1520:	
  2196  04A9                     l1641:	
  2197  04A9  0A33               	incf	___flmul@bexp,w
  2198  04AA  1D03               	btfss	3,2
  2199  04AB  2CAD               	goto	u1531
  2200  04AC  2CAE               	goto	u1530
  2201  04AD                     u1531:	
  2202  04AD  2CB6               	goto	l1645
  2203  04AE                     u1530:	
  2204  04AE                     l1643:	
  2205  04AE  3000               	movlw	0
  2206  04AF  00A3               	movwf	___flmul@b+3
  2207  04B0  3000               	movlw	0
  2208  04B1  00A2               	movwf	___flmul@b+2
  2209  04B2  3000               	movlw	0
  2210  04B3  00A1               	movwf	___flmul@b+1
  2211  04B4  3000               	movlw	0
  2212  04B5  00A0               	movwf	___flmul@b
  2213  04B6                     l1645:	
  2214  04B6  17A2               	bsf	___flmul@b+2,7
  2215  04B7  2CC0               	goto	l1649
  2216  04B8                     l1647:	
  2217  04B8  3000               	movlw	0
  2218  04B9  00A3               	movwf	___flmul@b+3
  2219  04BA  3000               	movlw	0
  2220  04BB  00A2               	movwf	___flmul@b+2
  2221  04BC  3000               	movlw	0
  2222  04BD  00A1               	movwf	___flmul@b+1
  2223  04BE  3000               	movlw	0
  2224  04BF  00A0               	movwf	___flmul@b
  2225  04C0                     l1649:	
  2226  04C0  0827               	movf	___flmul@a+3,w
  2227  04C1  3980               	andlw	128
  2228  04C2  00A8               	movwf	??___flmul
  2229  04C3  0828               	movf	??___flmul,w
  2230  04C4  06AD               	xorwf	___flmul@sign,f
  2231  04C5                     l1651:	
  2232  04C5  0827               	movf	___flmul@a+3,w
  2233  04C6  00A8               	movwf	??___flmul
  2234  04C7  0728               	addwf	??___flmul,w
  2235  04C8  00A9               	movwf	??___flmul+1
  2236  04C9  0829               	movf	??___flmul+1,w
  2237  04CA  00B2               	movwf	___flmul@aexp
  2238  04CB                     l1653:	
  2239  04CB  1FA6               	btfss	___flmul@a+2,7
  2240  04CC  2CCE               	goto	u1541
  2241  04CD  2CCF               	goto	u1540
  2242  04CE                     u1541:	
  2243  04CE  2CD0               	goto	l1657
  2244  04CF                     u1540:	
  2245  04CF                     l1655:	
  2246  04CF  1432               	bsf	___flmul@aexp,0
  2247  04D0                     l1657:	
  2248  04D0  0832               	movf	___flmul@aexp,w
  2249  04D1  1903               	btfsc	3,2
  2250  04D2  2CD4               	goto	u1551
  2251  04D3  2CD5               	goto	u1550
  2252  04D4                     u1551:	
  2253  04D4  2CE4               	goto	l1665
  2254  04D5                     u1550:	
  2255  04D5                     l1659:	
  2256  04D5  0A32               	incf	___flmul@aexp,w
  2257  04D6  1D03               	btfss	3,2
  2258  04D7  2CD9               	goto	u1561
  2259  04D8  2CDA               	goto	u1560
  2260  04D9                     u1561:	
  2261  04D9  2CE2               	goto	l1663
  2262  04DA                     u1560:	
  2263  04DA                     l1661:	
  2264  04DA  3000               	movlw	0
  2265  04DB  00A7               	movwf	___flmul@a+3
  2266  04DC  3000               	movlw	0
  2267  04DD  00A6               	movwf	___flmul@a+2
  2268  04DE  3000               	movlw	0
  2269  04DF  00A5               	movwf	___flmul@a+1
  2270  04E0  3000               	movlw	0
  2271  04E1  00A4               	movwf	___flmul@a
  2272  04E2                     l1663:	
  2273  04E2  17A6               	bsf	___flmul@a+2,7
  2274  04E3  2CEC               	goto	l1667
  2275  04E4                     l1665:	
  2276  04E4  3000               	movlw	0
  2277  04E5  00A7               	movwf	___flmul@a+3
  2278  04E6  3000               	movlw	0
  2279  04E7  00A6               	movwf	___flmul@a+2
  2280  04E8  3000               	movlw	0
  2281  04E9  00A5               	movwf	___flmul@a+1
  2282  04EA  3000               	movlw	0
  2283  04EB  00A4               	movwf	___flmul@a
  2284  04EC                     l1667:	
  2285  04EC  0832               	movf	___flmul@aexp,w
  2286  04ED  1903               	btfsc	3,2
  2287  04EE  2CF0               	goto	u1571
  2288  04EF  2CF1               	goto	u1570
  2289  04F0                     u1571:	
  2290  04F0  2CF6               	goto	l1671
  2291  04F1                     u1570:	
  2292  04F1                     l1669:	
  2293  04F1  0833               	movf	___flmul@bexp,w
  2294  04F2  1D03               	btfss	3,2
  2295  04F3  2CF5               	goto	u1581
  2296  04F4  2CF6               	goto	u1580
  2297  04F5                     u1581:	
  2298  04F5  2CFF               	goto	l1675
  2299  04F6                     u1580:	
  2300  04F6                     l1671:	
  2301  04F6  3000               	movlw	0
  2302  04F7  00A3               	movwf	?___flmul+3
  2303  04F8  3000               	movlw	0
  2304  04F9  00A2               	movwf	?___flmul+2
  2305  04FA  3000               	movlw	0
  2306  04FB  00A1               	movwf	?___flmul+1
  2307  04FC  3000               	movlw	0
  2308  04FD  00A0               	movwf	?___flmul
  2309  04FE  2FF2               	goto	l684
  2310  04FF                     l1675:	
  2311  04FF  0820               	movf	___flmul@b,w
  2312  0500  00A8               	movwf	??___flmul
  2313  0501  0828               	movf	??___flmul,w
  2314  0502  00F0               	movwf	__Umul8_16@multiplicand
  2315  0503  0826               	movf	___flmul@a+2,w
  2316  0504  120A  158A  25DD  120A  118A  	fcall	__Umul8_16
  2317  0509  0871               	movf	?__Umul8_16+1,w
  2318  050A  1283               	bcf	3,5	;RP0=0, select bank0
  2319  050B  1303               	bcf	3,6	;RP1=0, select bank0
  2320  050C  00B9               	movwf	___flmul@temp+1
  2321  050D  0870               	movf	?__Umul8_16,w
  2322  050E  00B8               	movwf	___flmul@temp
  2323  050F                     l1677:	
  2324  050F  0838               	movf	___flmul@temp,w
  2325  0510  00A8               	movwf	??___flmul
  2326  0511  01A9               	clrf	??___flmul+1
  2327  0512  01AA               	clrf	??___flmul+2
  2328  0513  01AB               	clrf	??___flmul+3
  2329  0514  082B               	movf	??___flmul+3,w
  2330  0515  00B1               	movwf	___flmul@grs+3
  2331  0516  082A               	movf	??___flmul+2,w
  2332  0517  00B0               	movwf	___flmul@grs+2
  2333  0518  0829               	movf	??___flmul+1,w
  2334  0519  00AF               	movwf	___flmul@grs+1
  2335  051A  0828               	movf	??___flmul,w
  2336  051B  00AE               	movwf	___flmul@grs
  2337  051C                     l1679:	
  2338  051C  0839               	movf	___flmul@temp+1,w
  2339  051D  00A8               	movwf	??___flmul
  2340  051E  01A9               	clrf	??___flmul+1
  2341  051F  01AA               	clrf	??___flmul+2
  2342  0520  01AB               	clrf	??___flmul+3
  2343  0521  082B               	movf	??___flmul+3,w
  2344  0522  00B7               	movwf	___flmul@prod+3
  2345  0523  082A               	movf	??___flmul+2,w
  2346  0524  00B6               	movwf	___flmul@prod+2
  2347  0525  0829               	movf	??___flmul+1,w
  2348  0526  00B5               	movwf	___flmul@prod+1
  2349  0527  0828               	movf	??___flmul,w
  2350  0528  00B4               	movwf	___flmul@prod
  2351  0529  0821               	movf	___flmul@b+1,w
  2352  052A  00A8               	movwf	??___flmul
  2353  052B  0828               	movf	??___flmul,w
  2354  052C  00F0               	movwf	__Umul8_16@multiplicand
  2355  052D  0825               	movf	___flmul@a+1,w
  2356  052E  120A  158A  25DD  120A  118A  	fcall	__Umul8_16
  2357  0533  0871               	movf	?__Umul8_16+1,w
  2358  0534  1283               	bcf	3,5	;RP0=0, select bank0
  2359  0535  1303               	bcf	3,6	;RP1=0, select bank0
  2360  0536  00B9               	movwf	___flmul@temp+1
  2361  0537  0870               	movf	?__Umul8_16,w
  2362  0538  00B8               	movwf	___flmul@temp
  2363  0539                     l1681:	
  2364  0539  0838               	movf	___flmul@temp,w
  2365  053A  00A8               	movwf	??___flmul
  2366  053B  01A9               	clrf	??___flmul+1
  2367  053C  01AA               	clrf	??___flmul+2
  2368  053D  01AB               	clrf	??___flmul+3
  2369  053E  0828               	movf	??___flmul,w
  2370  053F  07AE               	addwf	___flmul@grs,f
  2371  0540  0829               	movf	??___flmul+1,w
  2372  0541  1103               	clrz
  2373  0542  1803               	skipnc
  2374  0543  3E01               	addlw	1
  2375  0544  1903               	skipnz
  2376  0545  2D47               	goto	u1591
  2377  0546  07AF               	addwf	___flmul@grs+1,f
  2378  0547                     u1591:	
  2379  0547  082A               	movf	??___flmul+2,w
  2380  0548  1103               	clrz
  2381  0549  1803               	skipnc
  2382  054A  3E01               	addlw	1
  2383  054B  1903               	skipnz
  2384  054C  2D4E               	goto	u1592
  2385  054D  07B0               	addwf	___flmul@grs+2,f
  2386  054E                     u1592:	
  2387  054E  082B               	movf	??___flmul+3,w
  2388  054F  1103               	clrz
  2389  0550  1803               	skipnc
  2390  0551  3E01               	addlw	1
  2391  0552  1903               	skipnz
  2392  0553  2D55               	goto	u1593
  2393  0554  07B1               	addwf	___flmul@grs+3,f
  2394  0555                     u1593:	
  2395  0555                     l1683:	
  2396  0555  0839               	movf	___flmul@temp+1,w
  2397  0556  00A8               	movwf	??___flmul
  2398  0557  01A9               	clrf	??___flmul+1
  2399  0558  01AA               	clrf	??___flmul+2
  2400  0559  01AB               	clrf	??___flmul+3
  2401  055A  0828               	movf	??___flmul,w
  2402  055B  07B4               	addwf	___flmul@prod,f
  2403  055C  0829               	movf	??___flmul+1,w
  2404  055D  1103               	clrz
  2405  055E  1803               	skipnc
  2406  055F  3E01               	addlw	1
  2407  0560  1903               	skipnz
  2408  0561  2D63               	goto	u1601
  2409  0562  07B5               	addwf	___flmul@prod+1,f
  2410  0563                     u1601:	
  2411  0563  082A               	movf	??___flmul+2,w
  2412  0564  1103               	clrz
  2413  0565  1803               	skipnc
  2414  0566  3E01               	addlw	1
  2415  0567  1903               	skipnz
  2416  0568  2D6A               	goto	u1602
  2417  0569  07B6               	addwf	___flmul@prod+2,f
  2418  056A                     u1602:	
  2419  056A  082B               	movf	??___flmul+3,w
  2420  056B  1103               	clrz
  2421  056C  1803               	skipnc
  2422  056D  3E01               	addlw	1
  2423  056E  1903               	skipnz
  2424  056F  2D71               	goto	u1603
  2425  0570  07B7               	addwf	___flmul@prod+3,f
  2426  0571                     u1603:	
  2427  0571  0822               	movf	___flmul@b+2,w
  2428  0572  00A8               	movwf	??___flmul
  2429  0573  0828               	movf	??___flmul,w
  2430  0574  00F0               	movwf	__Umul8_16@multiplicand
  2431  0575  0824               	movf	___flmul@a,w
  2432  0576  120A  158A  25DD  120A  118A  	fcall	__Umul8_16
  2433  057B  0871               	movf	?__Umul8_16+1,w
  2434  057C  1283               	bcf	3,5	;RP0=0, select bank0
  2435  057D  1303               	bcf	3,6	;RP1=0, select bank0
  2436  057E  00B9               	movwf	___flmul@temp+1
  2437  057F  0870               	movf	?__Umul8_16,w
  2438  0580  00B8               	movwf	___flmul@temp
  2439  0581                     l1685:	
  2440  0581  0838               	movf	___flmul@temp,w
  2441  0582  00A8               	movwf	??___flmul
  2442  0583  01A9               	clrf	??___flmul+1
  2443  0584  01AA               	clrf	??___flmul+2
  2444  0585  01AB               	clrf	??___flmul+3
  2445  0586  0828               	movf	??___flmul,w
  2446  0587  07AE               	addwf	___flmul@grs,f
  2447  0588  0829               	movf	??___flmul+1,w
  2448  0589  1103               	clrz
  2449  058A  1803               	skipnc
  2450  058B  3E01               	addlw	1
  2451  058C  1903               	skipnz
  2452  058D  2D8F               	goto	u1611
  2453  058E  07AF               	addwf	___flmul@grs+1,f
  2454  058F                     u1611:	
  2455  058F  082A               	movf	??___flmul+2,w
  2456  0590  1103               	clrz
  2457  0591  1803               	skipnc
  2458  0592  3E01               	addlw	1
  2459  0593  1903               	skipnz
  2460  0594  2D96               	goto	u1612
  2461  0595  07B0               	addwf	___flmul@grs+2,f
  2462  0596                     u1612:	
  2463  0596  082B               	movf	??___flmul+3,w
  2464  0597  1103               	clrz
  2465  0598  1803               	skipnc
  2466  0599  3E01               	addlw	1
  2467  059A  1903               	skipnz
  2468  059B  2D9D               	goto	u1613
  2469  059C  07B1               	addwf	___flmul@grs+3,f
  2470  059D                     u1613:	
  2471  059D                     l1687:	
  2472  059D  0839               	movf	___flmul@temp+1,w
  2473  059E  00A8               	movwf	??___flmul
  2474  059F  01A9               	clrf	??___flmul+1
  2475  05A0  01AA               	clrf	??___flmul+2
  2476  05A1  01AB               	clrf	??___flmul+3
  2477  05A2  0828               	movf	??___flmul,w
  2478  05A3  07B4               	addwf	___flmul@prod,f
  2479  05A4  0829               	movf	??___flmul+1,w
  2480  05A5  1103               	clrz
  2481  05A6  1803               	skipnc
  2482  05A7  3E01               	addlw	1
  2483  05A8  1903               	skipnz
  2484  05A9  2DAB               	goto	u1621
  2485  05AA  07B5               	addwf	___flmul@prod+1,f
  2486  05AB                     u1621:	
  2487  05AB  082A               	movf	??___flmul+2,w
  2488  05AC  1103               	clrz
  2489  05AD  1803               	skipnc
  2490  05AE  3E01               	addlw	1
  2491  05AF  1903               	skipnz
  2492  05B0  2DB2               	goto	u1622
  2493  05B1  07B6               	addwf	___flmul@prod+2,f
  2494  05B2                     u1622:	
  2495  05B2  082B               	movf	??___flmul+3,w
  2496  05B3  1103               	clrz
  2497  05B4  1803               	skipnc
  2498  05B5  3E01               	addlw	1
  2499  05B6  1903               	skipnz
  2500  05B7  2DB9               	goto	u1623
  2501  05B8  07B7               	addwf	___flmul@prod+3,f
  2502  05B9                     u1623:	
  2503  05B9                     l1689:	
  2504  05B9  3008               	movlw	8
  2505  05BA  00A8               	movwf	??___flmul
  2506  05BB                     u1635:	
  2507  05BB  1003               	clrc
  2508  05BC  0DAE               	rlf	___flmul@grs,f
  2509  05BD  0DAF               	rlf	___flmul@grs+1,f
  2510  05BE  0DB0               	rlf	___flmul@grs+2,f
  2511  05BF  0DB1               	rlf	___flmul@grs+3,f
  2512  05C0  0BA8               	decfsz	??___flmul,f
  2513  05C1  2DBB               	goto	u1635
  2514  05C2                     l1691:	
  2515  05C2  0821               	movf	___flmul@b+1,w
  2516  05C3  00A8               	movwf	??___flmul
  2517  05C4  0828               	movf	??___flmul,w
  2518  05C5  00F0               	movwf	__Umul8_16@multiplicand
  2519  05C6  0824               	movf	___flmul@a,w
  2520  05C7  120A  158A  25DD  120A  118A  	fcall	__Umul8_16
  2521  05CC  0871               	movf	?__Umul8_16+1,w
  2522  05CD  1283               	bcf	3,5	;RP0=0, select bank0
  2523  05CE  1303               	bcf	3,6	;RP1=0, select bank0
  2524  05CF  00B9               	movwf	___flmul@temp+1
  2525  05D0  0870               	movf	?__Umul8_16,w
  2526  05D1  00B8               	movwf	___flmul@temp
  2527  05D2                     l1693:	
  2528  05D2  0838               	movf	___flmul@temp,w
  2529  05D3  00A8               	movwf	??___flmul
  2530  05D4  0839               	movf	___flmul@temp+1,w
  2531  05D5  00A9               	movwf	??___flmul+1
  2532  05D6  01AA               	clrf	??___flmul+2
  2533  05D7  01AB               	clrf	??___flmul+3
  2534  05D8  0828               	movf	??___flmul,w
  2535  05D9  07AE               	addwf	___flmul@grs,f
  2536  05DA  0829               	movf	??___flmul+1,w
  2537  05DB  1103               	clrz
  2538  05DC  1803               	skipnc
  2539  05DD  3E01               	addlw	1
  2540  05DE  1903               	skipnz
  2541  05DF  2DE1               	goto	u1641
  2542  05E0  07AF               	addwf	___flmul@grs+1,f
  2543  05E1                     u1641:	
  2544  05E1  082A               	movf	??___flmul+2,w
  2545  05E2  1103               	clrz
  2546  05E3  1803               	skipnc
  2547  05E4  3E01               	addlw	1
  2548  05E5  1903               	skipnz
  2549  05E6  2DE8               	goto	u1642
  2550  05E7  07B0               	addwf	___flmul@grs+2,f
  2551  05E8                     u1642:	
  2552  05E8  082B               	movf	??___flmul+3,w
  2553  05E9  1103               	clrz
  2554  05EA  1803               	skipnc
  2555  05EB  3E01               	addlw	1
  2556  05EC  1903               	skipnz
  2557  05ED  2DEF               	goto	u1643
  2558  05EE  07B1               	addwf	___flmul@grs+3,f
  2559  05EF                     u1643:	
  2560  05EF                     l1695:	
  2561  05EF  0820               	movf	___flmul@b,w
  2562  05F0  00A8               	movwf	??___flmul
  2563  05F1  0828               	movf	??___flmul,w
  2564  05F2  00F0               	movwf	__Umul8_16@multiplicand
  2565  05F3  0825               	movf	___flmul@a+1,w
  2566  05F4  120A  158A  25DD  120A  118A  	fcall	__Umul8_16
  2567  05F9  0871               	movf	?__Umul8_16+1,w
  2568  05FA  1283               	bcf	3,5	;RP0=0, select bank0
  2569  05FB  1303               	bcf	3,6	;RP1=0, select bank0
  2570  05FC  00B9               	movwf	___flmul@temp+1
  2571  05FD  0870               	movf	?__Umul8_16,w
  2572  05FE  00B8               	movwf	___flmul@temp
  2573  05FF                     l1697:	
  2574  05FF  0838               	movf	___flmul@temp,w
  2575  0600  00A8               	movwf	??___flmul
  2576  0601  0839               	movf	___flmul@temp+1,w
  2577  0602  00A9               	movwf	??___flmul+1
  2578  0603  01AA               	clrf	??___flmul+2
  2579  0604  01AB               	clrf	??___flmul+3
  2580  0605  0828               	movf	??___flmul,w
  2581  0606  07AE               	addwf	___flmul@grs,f
  2582  0607  0829               	movf	??___flmul+1,w
  2583  0608  1103               	clrz
  2584  0609  1803               	skipnc
  2585  060A  3E01               	addlw	1
  2586  060B  1903               	skipnz
  2587  060C  2E0E               	goto	u1651
  2588  060D  07AF               	addwf	___flmul@grs+1,f
  2589  060E                     u1651:	
  2590  060E  082A               	movf	??___flmul+2,w
  2591  060F  1103               	clrz
  2592  0610  1803               	skipnc
  2593  0611  3E01               	addlw	1
  2594  0612  1903               	skipnz
  2595  0613  2E15               	goto	u1652
  2596  0614  07B0               	addwf	___flmul@grs+2,f
  2597  0615                     u1652:	
  2598  0615  082B               	movf	??___flmul+3,w
  2599  0616  1103               	clrz
  2600  0617  1803               	skipnc
  2601  0618  3E01               	addlw	1
  2602  0619  1903               	skipnz
  2603  061A  2E1C               	goto	u1653
  2604  061B  07B1               	addwf	___flmul@grs+3,f
  2605  061C                     u1653:	
  2606  061C                     l1699:	
  2607  061C  3008               	movlw	8
  2608  061D  00A8               	movwf	??___flmul
  2609  061E                     u1665:	
  2610  061E  1003               	clrc
  2611  061F  0DAE               	rlf	___flmul@grs,f
  2612  0620  0DAF               	rlf	___flmul@grs+1,f
  2613  0621  0DB0               	rlf	___flmul@grs+2,f
  2614  0622  0DB1               	rlf	___flmul@grs+3,f
  2615  0623  0BA8               	decfsz	??___flmul,f
  2616  0624  2E1E               	goto	u1665
  2617  0625  0820               	movf	___flmul@b,w
  2618  0626  00A8               	movwf	??___flmul
  2619  0627  0828               	movf	??___flmul,w
  2620  0628  00F0               	movwf	__Umul8_16@multiplicand
  2621  0629  0824               	movf	___flmul@a,w
  2622  062A  120A  158A  25DD  120A  118A  	fcall	__Umul8_16
  2623  062F  0871               	movf	?__Umul8_16+1,w
  2624  0630  1283               	bcf	3,5	;RP0=0, select bank0
  2625  0631  1303               	bcf	3,6	;RP1=0, select bank0
  2626  0632  00B9               	movwf	___flmul@temp+1
  2627  0633  0870               	movf	?__Umul8_16,w
  2628  0634  00B8               	movwf	___flmul@temp
  2629  0635                     l1701:	
  2630  0635  0838               	movf	___flmul@temp,w
  2631  0636  00A8               	movwf	??___flmul
  2632  0637  0839               	movf	___flmul@temp+1,w
  2633  0638  00A9               	movwf	??___flmul+1
  2634  0639  01AA               	clrf	??___flmul+2
  2635  063A  01AB               	clrf	??___flmul+3
  2636  063B  0828               	movf	??___flmul,w
  2637  063C  07AE               	addwf	___flmul@grs,f
  2638  063D  0829               	movf	??___flmul+1,w
  2639  063E  1103               	clrz
  2640  063F  1803               	skipnc
  2641  0640  3E01               	addlw	1
  2642  0641  1903               	skipnz
  2643  0642  2E44               	goto	u1671
  2644  0643  07AF               	addwf	___flmul@grs+1,f
  2645  0644                     u1671:	
  2646  0644  082A               	movf	??___flmul+2,w
  2647  0645  1103               	clrz
  2648  0646  1803               	skipnc
  2649  0647  3E01               	addlw	1
  2650  0648  1903               	skipnz
  2651  0649  2E4B               	goto	u1672
  2652  064A  07B0               	addwf	___flmul@grs+2,f
  2653  064B                     u1672:	
  2654  064B  082B               	movf	??___flmul+3,w
  2655  064C  1103               	clrz
  2656  064D  1803               	skipnc
  2657  064E  3E01               	addlw	1
  2658  064F  1903               	skipnz
  2659  0650  2E52               	goto	u1673
  2660  0651  07B1               	addwf	___flmul@grs+3,f
  2661  0652                     u1673:	
  2662  0652                     l1703:	
  2663  0652  0821               	movf	___flmul@b+1,w
  2664  0653  00A8               	movwf	??___flmul
  2665  0654  0828               	movf	??___flmul,w
  2666  0655  00F0               	movwf	__Umul8_16@multiplicand
  2667  0656  0826               	movf	___flmul@a+2,w
  2668  0657  120A  158A  25DD  120A  118A  	fcall	__Umul8_16
  2669  065C  0871               	movf	?__Umul8_16+1,w
  2670  065D  1283               	bcf	3,5	;RP0=0, select bank0
  2671  065E  1303               	bcf	3,6	;RP1=0, select bank0
  2672  065F  00B9               	movwf	___flmul@temp+1
  2673  0660  0870               	movf	?__Umul8_16,w
  2674  0661  00B8               	movwf	___flmul@temp
  2675  0662  0838               	movf	___flmul@temp,w
  2676  0663  00A8               	movwf	??___flmul
  2677  0664  0839               	movf	___flmul@temp+1,w
  2678  0665  00A9               	movwf	??___flmul+1
  2679  0666  01AA               	clrf	??___flmul+2
  2680  0667  01AB               	clrf	??___flmul+3
  2681  0668  0828               	movf	??___flmul,w
  2682  0669  07B4               	addwf	___flmul@prod,f
  2683  066A  0829               	movf	??___flmul+1,w
  2684  066B  1103               	clrz
  2685  066C  1803               	skipnc
  2686  066D  3E01               	addlw	1
  2687  066E  1903               	skipnz
  2688  066F  2E71               	goto	u1681
  2689  0670  07B5               	addwf	___flmul@prod+1,f
  2690  0671                     u1681:	
  2691  0671  082A               	movf	??___flmul+2,w
  2692  0672  1103               	clrz
  2693  0673  1803               	skipnc
  2694  0674  3E01               	addlw	1
  2695  0675  1903               	skipnz
  2696  0676  2E78               	goto	u1682
  2697  0677  07B6               	addwf	___flmul@prod+2,f
  2698  0678                     u1682:	
  2699  0678  082B               	movf	??___flmul+3,w
  2700  0679  1103               	clrz
  2701  067A  1803               	skipnc
  2702  067B  3E01               	addlw	1
  2703  067C  1903               	skipnz
  2704  067D  2E7F               	goto	u1683
  2705  067E  07B7               	addwf	___flmul@prod+3,f
  2706  067F                     u1683:	
  2707  067F                     l1705:	
  2708  067F  0822               	movf	___flmul@b+2,w
  2709  0680  00A8               	movwf	??___flmul
  2710  0681  0828               	movf	??___flmul,w
  2711  0682  00F0               	movwf	__Umul8_16@multiplicand
  2712  0683  0825               	movf	___flmul@a+1,w
  2713  0684  120A  158A  25DD  120A  118A  	fcall	__Umul8_16
  2714  0689  0871               	movf	?__Umul8_16+1,w
  2715  068A  1283               	bcf	3,5	;RP0=0, select bank0
  2716  068B  1303               	bcf	3,6	;RP1=0, select bank0
  2717  068C  00B9               	movwf	___flmul@temp+1
  2718  068D  0870               	movf	?__Umul8_16,w
  2719  068E  00B8               	movwf	___flmul@temp
  2720  068F                     l1707:	
  2721  068F  0838               	movf	___flmul@temp,w
  2722  0690  00A8               	movwf	??___flmul
  2723  0691  0839               	movf	___flmul@temp+1,w
  2724  0692  00A9               	movwf	??___flmul+1
  2725  0693  01AA               	clrf	??___flmul+2
  2726  0694  01AB               	clrf	??___flmul+3
  2727  0695  0828               	movf	??___flmul,w
  2728  0696  07B4               	addwf	___flmul@prod,f
  2729  0697  0829               	movf	??___flmul+1,w
  2730  0698  1103               	clrz
  2731  0699  1803               	skipnc
  2732  069A  3E01               	addlw	1
  2733  069B  1903               	skipnz
  2734  069C  2E9E               	goto	u1691
  2735  069D  07B5               	addwf	___flmul@prod+1,f
  2736  069E                     u1691:	
  2737  069E  082A               	movf	??___flmul+2,w
  2738  069F  1103               	clrz
  2739  06A0  1803               	skipnc
  2740  06A1  3E01               	addlw	1
  2741  06A2  1903               	skipnz
  2742  06A3  2EA5               	goto	u1692
  2743  06A4  07B6               	addwf	___flmul@prod+2,f
  2744  06A5                     u1692:	
  2745  06A5  082B               	movf	??___flmul+3,w
  2746  06A6  1103               	clrz
  2747  06A7  1803               	skipnc
  2748  06A8  3E01               	addlw	1
  2749  06A9  1903               	skipnz
  2750  06AA  2EAC               	goto	u1693
  2751  06AB  07B7               	addwf	___flmul@prod+3,f
  2752  06AC                     u1693:	
  2753  06AC  0822               	movf	___flmul@b+2,w
  2754  06AD  00A8               	movwf	??___flmul
  2755  06AE  0828               	movf	??___flmul,w
  2756  06AF  00F0               	movwf	__Umul8_16@multiplicand
  2757  06B0  0826               	movf	___flmul@a+2,w
  2758  06B1  120A  158A  25DD  120A  118A  	fcall	__Umul8_16
  2759  06B6  0871               	movf	?__Umul8_16+1,w
  2760  06B7  1283               	bcf	3,5	;RP0=0, select bank0
  2761  06B8  1303               	bcf	3,6	;RP1=0, select bank0
  2762  06B9  00B9               	movwf	___flmul@temp+1
  2763  06BA  0870               	movf	?__Umul8_16,w
  2764  06BB  00B8               	movwf	___flmul@temp
  2765  06BC                     l1709:	
  2766  06BC  0838               	movf	___flmul@temp,w
  2767  06BD  00A8               	movwf	??___flmul
  2768  06BE  0839               	movf	___flmul@temp+1,w
  2769  06BF  00A9               	movwf	??___flmul+1
  2770  06C0  01AA               	clrf	??___flmul+2
  2771  06C1  01AB               	clrf	??___flmul+3
  2772  06C2  3008               	movlw	8
  2773  06C3                     u1705:	
  2774  06C3  1003               	clrc
  2775  06C4  0DA8               	rlf	??___flmul,f
  2776  06C5  0DA9               	rlf	??___flmul+1,f
  2777  06C6  0DAA               	rlf	??___flmul+2,f
  2778  06C7  0DAB               	rlf	??___flmul+3,f
  2779  06C8                     u1700:	
  2780  06C8  3EFF               	addlw	-1
  2781  06C9  1D03               	skipz
  2782  06CA  2EC3               	goto	u1705
  2783  06CB  0828               	movf	??___flmul,w
  2784  06CC  07B4               	addwf	___flmul@prod,f
  2785  06CD  0829               	movf	??___flmul+1,w
  2786  06CE  1103               	clrz
  2787  06CF  1803               	skipnc
  2788  06D0  3E01               	addlw	1
  2789  06D1  1903               	skipnz
  2790  06D2  2ED4               	goto	u1711
  2791  06D3  07B5               	addwf	___flmul@prod+1,f
  2792  06D4                     u1711:	
  2793  06D4  082A               	movf	??___flmul+2,w
  2794  06D5  1103               	clrz
  2795  06D6  1803               	skipnc
  2796  06D7  3E01               	addlw	1
  2797  06D8  1903               	skipnz
  2798  06D9  2EDB               	goto	u1712
  2799  06DA  07B6               	addwf	___flmul@prod+2,f
  2800  06DB                     u1712:	
  2801  06DB  082B               	movf	??___flmul+3,w
  2802  06DC  1103               	clrz
  2803  06DD  1803               	skipnc
  2804  06DE  3E01               	addlw	1
  2805  06DF  1903               	skipnz
  2806  06E0  2EE2               	goto	u1713
  2807  06E1  07B7               	addwf	___flmul@prod+3,f
  2808  06E2                     u1713:	
  2809  06E2                     l1711:	
  2810  06E2  082E               	movf	___flmul@grs,w
  2811  06E3  00A8               	movwf	??___flmul
  2812  06E4  082F               	movf	___flmul@grs+1,w
  2813  06E5  00A9               	movwf	??___flmul+1
  2814  06E6  0830               	movf	___flmul@grs+2,w
  2815  06E7  00AA               	movwf	??___flmul+2
  2816  06E8  0831               	movf	___flmul@grs+3,w
  2817  06E9  00AB               	movwf	??___flmul+3
  2818  06EA  3018               	movlw	24
  2819  06EB                     u1725:	
  2820  06EB  1003               	clrc
  2821  06EC  0CAB               	rrf	??___flmul+3,f
  2822  06ED  0CAA               	rrf	??___flmul+2,f
  2823  06EE  0CA9               	rrf	??___flmul+1,f
  2824  06EF  0CA8               	rrf	??___flmul,f
  2825  06F0                     u1720:	
  2826  06F0  3EFF               	addlw	-1
  2827  06F1  1D03               	skipz
  2828  06F2  2EEB               	goto	u1725
  2829  06F3  0828               	movf	??___flmul,w
  2830  06F4  07B4               	addwf	___flmul@prod,f
  2831  06F5  0829               	movf	??___flmul+1,w
  2832  06F6  1103               	clrz
  2833  06F7  1803               	skipnc
  2834  06F8  3E01               	addlw	1
  2835  06F9  1903               	skipnz
  2836  06FA  2EFC               	goto	u1731
  2837  06FB  07B5               	addwf	___flmul@prod+1,f
  2838  06FC                     u1731:	
  2839  06FC  082A               	movf	??___flmul+2,w
  2840  06FD  1103               	clrz
  2841  06FE  1803               	skipnc
  2842  06FF  3E01               	addlw	1
  2843  0700  1903               	skipnz
  2844  0701  2F03               	goto	u1732
  2845  0702  07B6               	addwf	___flmul@prod+2,f
  2846  0703                     u1732:	
  2847  0703  082B               	movf	??___flmul+3,w
  2848  0704  1103               	clrz
  2849  0705  1803               	skipnc
  2850  0706  3E01               	addlw	1
  2851  0707  1903               	skipnz
  2852  0708  2F0A               	goto	u1733
  2853  0709  07B7               	addwf	___flmul@prod+3,f
  2854  070A                     u1733:	
  2855  070A                     l1713:	
  2856  070A  3008               	movlw	8
  2857  070B  00A8               	movwf	??___flmul
  2858  070C                     u1745:	
  2859  070C  1003               	clrc
  2860  070D  0DAE               	rlf	___flmul@grs,f
  2861  070E  0DAF               	rlf	___flmul@grs+1,f
  2862  070F  0DB0               	rlf	___flmul@grs+2,f
  2863  0710  0DB1               	rlf	___flmul@grs+3,f
  2864  0711  0BA8               	decfsz	??___flmul,f
  2865  0712  2F0C               	goto	u1745
  2866  0713                     l1715:	
  2867  0713  0833               	movf	___flmul@bexp,w
  2868  0714  0732               	addwf	___flmul@aexp,w
  2869  0715  00A8               	movwf	??___flmul
  2870  0716  01A9               	clrf	??___flmul+1
  2871  0717  0DA9               	rlf	??___flmul+1,f
  2872  0718  0828               	movf	??___flmul,w
  2873  0719  3E82               	addlw	130
  2874  071A  00B8               	movwf	___flmul@temp
  2875  071B  0829               	movf	??___flmul+1,w
  2876  071C  1803               	skipnc
  2877  071D  3E01               	addlw	1
  2878  071E  3EFF               	addlw	255
  2879  071F  00B9               	movwf	___flmul@temp+1
  2880  0720  2F3E               	goto	l1727
  2881  0721                     l1717:	
  2882  0721  3001               	movlw	1
  2883  0722  00A8               	movwf	??___flmul
  2884  0723                     u1755:	
  2885  0723  1003               	clrc
  2886  0724  0DB4               	rlf	___flmul@prod,f
  2887  0725  0DB5               	rlf	___flmul@prod+1,f
  2888  0726  0DB6               	rlf	___flmul@prod+2,f
  2889  0727  0DB7               	rlf	___flmul@prod+3,f
  2890  0728  0BA8               	decfsz	??___flmul,f
  2891  0729  2F23               	goto	u1755
  2892  072A                     l1719:	
  2893  072A  1FB1               	btfss	___flmul@grs+3,7
  2894  072B  2F2D               	goto	u1761
  2895  072C  2F2E               	goto	u1760
  2896  072D                     u1761:	
  2897  072D  2F2F               	goto	l1723
  2898  072E                     u1760:	
  2899  072E                     l1721:	
  2900  072E  1434               	bsf	___flmul@prod,0
  2901  072F                     l1723:	
  2902  072F  3001               	movlw	1
  2903  0730  00A8               	movwf	??___flmul
  2904  0731                     u1775:	
  2905  0731  1003               	clrc
  2906  0732  0DAE               	rlf	___flmul@grs,f
  2907  0733  0DAF               	rlf	___flmul@grs+1,f
  2908  0734  0DB0               	rlf	___flmul@grs+2,f
  2909  0735  0DB1               	rlf	___flmul@grs+3,f
  2910  0736  0BA8               	decfsz	??___flmul,f
  2911  0737  2F31               	goto	u1775
  2912  0738                     l1725:	
  2913  0738  30FF               	movlw	255
  2914  0739  07B8               	addwf	___flmul@temp,f
  2915  073A  1803               	skipnc
  2916  073B  0AB9               	incf	___flmul@temp+1,f
  2917  073C  30FF               	movlw	255
  2918  073D  07B9               	addwf	___flmul@temp+1,f
  2919  073E                     l1727:	
  2920  073E  1FB6               	btfss	___flmul@prod+2,7
  2921  073F  2F41               	goto	u1781
  2922  0740  2F42               	goto	u1780
  2923  0741                     u1781:	
  2924  0741  2F21               	goto	l1717
  2925  0742                     u1780:	
  2926  0742                     l1729:	
  2927  0742  01B2               	clrf	___flmul@aexp
  2928  0743                     l1731:	
  2929  0743  1FB1               	btfss	___flmul@grs+3,7
  2930  0744  2F46               	goto	u1791
  2931  0745  2F47               	goto	u1790
  2932  0746                     u1791:	
  2933  0746  2F63               	goto	l1739
  2934  0747                     u1790:	
  2935  0747                     l1733:	
  2936  0747  30FF               	movlw	255
  2937  0748  052E               	andwf	___flmul@grs,w
  2938  0749  00A8               	movwf	??___flmul
  2939  074A  30FF               	movlw	255
  2940  074B  052F               	andwf	___flmul@grs+1,w
  2941  074C  00A9               	movwf	??___flmul+1
  2942  074D  30FF               	movlw	255
  2943  074E  0530               	andwf	___flmul@grs+2,w
  2944  074F  00AA               	movwf	??___flmul+2
  2945  0750  307F               	movlw	127
  2946  0751  0531               	andwf	___flmul@grs+3,w
  2947  0752  00AB               	movwf	??___flmul+3
  2948  0753  082B               	movf	??___flmul+3,w
  2949  0754  042A               	iorwf	??___flmul+2,w
  2950  0755  0429               	iorwf	??___flmul+1,w
  2951  0756  0428               	iorwf	??___flmul,w
  2952  0757  1903               	skipnz
  2953  0758  2F5A               	goto	u1801
  2954  0759  2F5B               	goto	u1800
  2955  075A                     u1801:	
  2956  075A  2F5E               	goto	l690
  2957  075B                     u1800:	
  2958  075B                     l1735:	
  2959  075B  01B2               	clrf	___flmul@aexp
  2960  075C  0AB2               	incf	___flmul@aexp,f
  2961  075D  2F63               	goto	l1739
  2962  075E                     l690:	
  2963  075E  1C34               	btfss	___flmul@prod,0
  2964  075F  2F61               	goto	u1811
  2965  0760  2F62               	goto	u1810
  2966  0761                     u1811:	
  2967  0761  2F63               	goto	l1739
  2968  0762                     u1810:	
  2969  0762  2F5B               	goto	l1735
  2970  0763                     l1739:	
  2971  0763  0832               	movf	___flmul@aexp,w
  2972  0764  1903               	btfsc	3,2
  2973  0765  2F67               	goto	u1821
  2974  0766  2F68               	goto	u1820
  2975  0767                     u1821:	
  2976  0767  2F99               	goto	l1749
  2977  0768                     u1820:	
  2978  0768                     l1741:	
  2979  0768  3001               	movlw	1
  2980  0769  07B4               	addwf	___flmul@prod,f
  2981  076A  3000               	movlw	0
  2982  076B  1803               	skipnc
  2983  076C  3001               	movlw	1
  2984  076D  07B5               	addwf	___flmul@prod+1,f
  2985  076E  3000               	movlw	0
  2986  076F  1803               	skipnc
  2987  0770  3001               	movlw	1
  2988  0771  07B6               	addwf	___flmul@prod+2,f
  2989  0772  3000               	movlw	0
  2990  0773  1803               	skipnc
  2991  0774  3001               	movlw	1
  2992  0775  07B7               	addwf	___flmul@prod+3,f
  2993  0776                     l1743:	
  2994  0776  1C37               	btfss	___flmul@prod+3,0
  2995  0777  2F79               	goto	u1831
  2996  0778  2F7A               	goto	u1830
  2997  0779                     u1831:	
  2998  0779  2F99               	goto	l1749
  2999  077A                     u1830:	
  3000  077A                     l1745:	
  3001  077A  0834               	movf	___flmul@prod,w
  3002  077B  00A8               	movwf	??___flmul
  3003  077C  0835               	movf	___flmul@prod+1,w
  3004  077D  00A9               	movwf	??___flmul+1
  3005  077E  0836               	movf	___flmul@prod+2,w
  3006  077F  00AA               	movwf	??___flmul+2
  3007  0780  0837               	movf	___flmul@prod+3,w
  3008  0781  00AB               	movwf	??___flmul+3
  3009  0782  3001               	movlw	1
  3010  0783  00AC               	movwf	??___flmul+4
  3011  0784                     u1845:	
  3012  0784  0D2B               	rlf	??___flmul+3,w
  3013  0785  0CAB               	rrf	??___flmul+3,f
  3014  0786  0CAA               	rrf	??___flmul+2,f
  3015  0787  0CA9               	rrf	??___flmul+1,f
  3016  0788  0CA8               	rrf	??___flmul,f
  3017  0789                     u1840:	
  3018  0789  0BAC               	decfsz	??___flmul+4,f
  3019  078A  2F84               	goto	u1845
  3020  078B  082B               	movf	??___flmul+3,w
  3021  078C  00B7               	movwf	___flmul@prod+3
  3022  078D  082A               	movf	??___flmul+2,w
  3023  078E  00B6               	movwf	___flmul@prod+2
  3024  078F  0829               	movf	??___flmul+1,w
  3025  0790  00B5               	movwf	___flmul@prod+1
  3026  0791  0828               	movf	??___flmul,w
  3027  0792  00B4               	movwf	___flmul@prod
  3028  0793                     l1747:	
  3029  0793  3001               	movlw	1
  3030  0794  07B8               	addwf	___flmul@temp,f
  3031  0795  1803               	skipnc
  3032  0796  0AB9               	incf	___flmul@temp+1,f
  3033  0797  3000               	movlw	0
  3034  0798  07B9               	addwf	___flmul@temp+1,f
  3035  0799                     l1749:	
  3036  0799  0839               	movf	___flmul@temp+1,w
  3037  079A  3A80               	xorlw	128
  3038  079B  00FF               	movwf	btemp+1
  3039  079C  3080               	movlw	128
  3040  079D  027F               	subwf	btemp+1,w
  3041  079E  1D03               	skipz
  3042  079F  2FA2               	goto	u1855
  3043  07A0  30FF               	movlw	255
  3044  07A1  0238               	subwf	___flmul@temp,w
  3045  07A2                     u1855:	
  3046  07A2  1C03               	skipc
  3047  07A3  2FA5               	goto	u1851
  3048  07A4  2FA6               	goto	u1850
  3049  07A5                     u1851:	
  3050  07A5  2FB1               	goto	l1753
  3051  07A6                     u1850:	
  3052  07A6                     l1751:	
  3053  07A6  307F               	movlw	127
  3054  07A7  1283               	bcf	3,5	;RP0=0, select bank0
  3055  07A8  1303               	bcf	3,6	;RP1=0, select bank0
  3056  07A9  00B7               	movwf	___flmul@prod+3
  3057  07AA  3080               	movlw	128
  3058  07AB  00B6               	movwf	___flmul@prod+2
  3059  07AC  3000               	movlw	0
  3060  07AD  00B5               	movwf	___flmul@prod+1
  3061  07AE  3000               	movlw	0
  3062  07AF  00B4               	movwf	___flmul@prod
  3063  07B0  2FE6               	goto	l696
  3064  07B1                     l1753:	
  3065  07B1  1283               	bcf	3,5	;RP0=0, select bank0
  3066  07B2  1303               	bcf	3,6	;RP1=0, select bank0
  3067  07B3  0839               	movf	___flmul@temp+1,w
  3068  07B4  3A80               	xorlw	128
  3069  07B5  00FF               	movwf	btemp+1
  3070  07B6  3080               	movlw	128
  3071  07B7  027F               	subwf	btemp+1,w
  3072  07B8  1D03               	skipz
  3073  07B9  2FBC               	goto	u1865
  3074  07BA  3001               	movlw	1
  3075  07BB  0238               	subwf	___flmul@temp,w
  3076  07BC                     u1865:	
  3077  07BC  1803               	skipnc
  3078  07BD  2FBF               	goto	u1861
  3079  07BE  2FC0               	goto	u1860
  3080  07BF                     u1861:	
  3081  07BF  2FCC               	goto	l1759
  3082  07C0                     u1860:	
  3083  07C0                     l1755:	
  3084  07C0  3000               	movlw	0
  3085  07C1  1283               	bcf	3,5	;RP0=0, select bank0
  3086  07C2  1303               	bcf	3,6	;RP1=0, select bank0
  3087  07C3  00B7               	movwf	___flmul@prod+3
  3088  07C4  3000               	movlw	0
  3089  07C5  00B6               	movwf	___flmul@prod+2
  3090  07C6  3000               	movlw	0
  3091  07C7  00B5               	movwf	___flmul@prod+1
  3092  07C8  3000               	movlw	0
  3093  07C9  00B4               	movwf	___flmul@prod
  3094  07CA                     l1757:	
  3095  07CA  01AD               	clrf	___flmul@sign
  3096  07CB  2FE6               	goto	l696
  3097  07CC                     l1759:	
  3098  07CC  1283               	bcf	3,5	;RP0=0, select bank0
  3099  07CD  1303               	bcf	3,6	;RP1=0, select bank0
  3100  07CE  0838               	movf	___flmul@temp,w
  3101  07CF  00A8               	movwf	??___flmul
  3102  07D0  0828               	movf	??___flmul,w
  3103  07D1  00B3               	movwf	___flmul@bexp
  3104  07D2  30FF               	movlw	255
  3105  07D3  05B4               	andwf	___flmul@prod,f
  3106  07D4  30FF               	movlw	255
  3107  07D5  05B5               	andwf	___flmul@prod+1,f
  3108  07D6  307F               	movlw	127
  3109  07D7  05B6               	andwf	___flmul@prod+2,f
  3110  07D8  3000               	movlw	0
  3111  07D9  05B7               	andwf	___flmul@prod+3,f
  3112  07DA                     l1761:	
  3113  07DA  1C33               	btfss	___flmul@bexp,0
  3114  07DB  2FDD               	goto	u1871
  3115  07DC  2FDE               	goto	u1870
  3116  07DD                     u1871:	
  3117  07DD  2FDF               	goto	l1765
  3118  07DE                     u1870:	
  3119  07DE                     l1763:	
  3120  07DE  17B6               	bsf	___flmul@prod+2,7
  3121  07DF                     l1765:	
  3122  07DF  0833               	movf	___flmul@bexp,w
  3123  07E0  00A8               	movwf	??___flmul
  3124  07E1  1003               	clrc
  3125  07E2  0C28               	rrf	??___flmul,w
  3126  07E3  00A9               	movwf	??___flmul+1
  3127  07E4  0829               	movf	??___flmul+1,w
  3128  07E5  00B7               	movwf	___flmul@prod+3
  3129  07E6                     l696:	
  3130  07E6  082D               	movf	___flmul@sign,w
  3131  07E7  00A8               	movwf	??___flmul
  3132  07E8  0828               	movf	??___flmul,w
  3133  07E9  04B7               	iorwf	___flmul@prod+3,f
  3134  07EA                     l1767:	
  3135  07EA  0837               	movf	___flmul@prod+3,w
  3136  07EB  00A3               	movwf	?___flmul+3
  3137  07EC  0836               	movf	___flmul@prod+2,w
  3138  07ED  00A2               	movwf	?___flmul+2
  3139  07EE  0835               	movf	___flmul@prod+1,w
  3140  07EF  00A1               	movwf	?___flmul+1
  3141  07F0  0834               	movf	___flmul@prod,w
  3142  07F1  00A0               	movwf	?___flmul
  3143  07F2                     l684:	
  3144  07F2  0008               	return
  3145  07F3                     __end_of___flmul:	
  3146                           
  3147                           	psect	text7
  3148  0DDD                     __ptext7:	
  3149 ;; *************** function __Umul8_16 *****************
  3150 ;; Defined at:
  3151 ;;		line 4 in file "C:\Program Files (x86)\Microchip\xc8\v2.10\pic\sources\c90\common\Umul8_16.c"
  3152 ;; Parameters:    Size  Location     Type
  3153 ;;  multiplier      1    wreg     unsigned char 
  3154 ;;  multiplicand    1    0[COMMON] unsigned char 
  3155 ;; Auto vars:     Size  Location     Type
  3156 ;;  multiplier      1    8[COMMON] unsigned char 
  3157 ;;  word_mpld       2    6[COMMON] unsigned int 
  3158 ;;  product         2    4[COMMON] unsigned int 
  3159 ;; Return value:  Size  Location     Type
  3160 ;;                  2    0[COMMON] unsigned int 
  3161 ;; Registers used:
  3162 ;;		wreg, status,2, status,0
  3163 ;; Tracked objects:
  3164 ;;		On entry : 0/0
  3165 ;;		On exit  : 0/0
  3166 ;;		Unchanged: 0/0
  3167 ;; Data sizes:     COMMON   BANK0   BANK1   BANK3   BANK2
  3168 ;;      Params:         2       0       0       0       0
  3169 ;;      Locals:         5       0       0       0       0
  3170 ;;      Temps:          2       0       0       0       0
  3171 ;;      Totals:         9       0       0       0       0
  3172 ;;Total ram usage:        9 bytes
  3173 ;; Hardware stack levels used:    1
  3174 ;; This function calls:
  3175 ;;		Nothing
  3176 ;; This function is called by:
  3177 ;;		___flmul
  3178 ;; This function uses a non-reentrant model
  3179 ;;
  3180                           
  3181                           
  3182                           ;psect for function __Umul8_16
  3183  0DDD                     __Umul8_16:	
  3184                           
  3185                           ;incstack = 0
  3186                           ; Regs used in __Umul8_16: [wreg+status,2+status,0]
  3187                           ;__Umul8_16@multiplier stored from wreg
  3188  0DDD  00F8               	movwf	__Umul8_16@multiplier
  3189  0DDE                     l1431:	
  3190  0DDE  01F4               	clrf	__Umul8_16@product
  3191  0DDF  01F5               	clrf	__Umul8_16@product+1
  3192  0DE0                     l1433:	
  3193  0DE0  0870               	movf	__Umul8_16@multiplicand,w
  3194  0DE1  00F2               	movwf	??__Umul8_16
  3195  0DE2  01F3               	clrf	??__Umul8_16+1
  3196  0DE3  0872               	movf	??__Umul8_16,w
  3197  0DE4  00F6               	movwf	__Umul8_16@word_mpld
  3198  0DE5  0873               	movf	??__Umul8_16+1,w
  3199  0DE6  00F7               	movwf	__Umul8_16@word_mpld+1
  3200  0DE7                     l1435:	
  3201  0DE7  1C78               	btfss	__Umul8_16@multiplier,0
  3202  0DE8  2DEA               	goto	u1041
  3203  0DE9  2DEB               	goto	u1040
  3204  0DEA                     u1041:	
  3205  0DEA  2DF1               	goto	l741
  3206  0DEB                     u1040:	
  3207  0DEB                     l1437:	
  3208  0DEB  0876               	movf	__Umul8_16@word_mpld,w
  3209  0DEC  07F4               	addwf	__Umul8_16@product,f
  3210  0DED  1803               	skipnc
  3211  0DEE  0AF5               	incf	__Umul8_16@product+1,f
  3212  0DEF  0877               	movf	__Umul8_16@word_mpld+1,w
  3213  0DF0  07F5               	addwf	__Umul8_16@product+1,f
  3214  0DF1                     l741:	
  3215  0DF1  3001               	movlw	1
  3216  0DF2                     u1055:	
  3217  0DF2  1003               	clrc
  3218  0DF3  0DF6               	rlf	__Umul8_16@word_mpld,f
  3219  0DF4  0DF7               	rlf	__Umul8_16@word_mpld+1,f
  3220  0DF5  3EFF               	addlw	-1
  3221  0DF6  1D03               	skipz
  3222  0DF7  2DF2               	goto	u1055
  3223  0DF8  1003               	clrc
  3224  0DF9  0CF8               	rrf	__Umul8_16@multiplier,f
  3225  0DFA                     l1439:	
  3226  0DFA  0878               	movf	__Umul8_16@multiplier,w
  3227  0DFB  1D03               	btfss	3,2
  3228  0DFC  2DFE               	goto	u1061
  3229  0DFD  2DFF               	goto	u1060
  3230  0DFE                     u1061:	
  3231  0DFE  2DE7               	goto	l1435
  3232  0DFF                     u1060:	
  3233  0DFF                     l1441:	
  3234  0DFF  0875               	movf	__Umul8_16@product+1,w
  3235  0E00  00F1               	movwf	?__Umul8_16+1
  3236  0E01  0874               	movf	__Umul8_16@product,w
  3237  0E02  00F0               	movwf	?__Umul8_16
  3238  0E03                     l743:	
  3239  0E03  0008               	return
  3240  0E04                     __end_of__Umul8_16:	
  3241                           
  3242                           	psect	text8
  3243  0E04                     __ptext8:	
  3244 ;; *************** function _obtener_decenas *****************
  3245 ;; Defined at:
  3246 ;;		line 136 in file "Main_master.c"
  3247 ;; Parameters:    Size  Location     Type
  3248 ;;  a               1    wreg     unsigned char 
  3249 ;; Auto vars:     Size  Location     Type
  3250 ;;  a               1    5[BANK0 ] unsigned char 
  3251 ;;  temporal        1    6[BANK0 ] unsigned char 
  3252 ;; Return value:  Size  Location     Type
  3253 ;;                  1    wreg      unsigned char 
  3254 ;; Registers used:
  3255 ;;		wreg, status,2, status,0, pclath, cstack
  3256 ;; Tracked objects:
  3257 ;;		On entry : 0/0
  3258 ;;		On exit  : 0/0
  3259 ;;		Unchanged: 0/0
  3260 ;; Data sizes:     COMMON   BANK0   BANK1   BANK3   BANK2
  3261 ;;      Params:         0       0       0       0       0
  3262 ;;      Locals:         0       2       0       0       0
  3263 ;;      Temps:          0       3       0       0       0
  3264 ;;      Totals:         0       5       0       0       0
  3265 ;;Total ram usage:        5 bytes
  3266 ;; Hardware stack levels used:    1
  3267 ;; Hardware stack levels required when called:    1
  3268 ;; This function calls:
  3269 ;;		___awdiv
  3270 ;;		___awmod
  3271 ;; This function is called by:
  3272 ;;		_main
  3273 ;; This function uses a non-reentrant model
  3274 ;;
  3275                           
  3276                           
  3277                           ;psect for function _obtener_decenas
  3278  0E04                     _obtener_decenas:	
  3279                           
  3280                           ;incstack = 0
  3281                           ; Regs used in _obtener_decenas: [wreg+status,2+status,0+pclath+cstack]
  3282                           ;obtener_decenas@a stored from wreg
  3283  0E04  1283               	bcf	3,5	;RP0=0, select bank0
  3284  0E05  1303               	bcf	3,6	;RP1=0, select bank0
  3285  0E06  00A5               	movwf	obtener_decenas@a
  3286  0E07                     l1883:	
  3287                           
  3288                           ;Main_master.c: 137:     uint8_t temporal;;Main_master.c: 138:     temporal = (a/10)%10;
  3289  0E07  300A               	movlw	10
  3290  0E08  00F9               	movwf	___awmod@divisor
  3291  0E09  3000               	movlw	0
  3292  0E0A  00FA               	movwf	___awmod@divisor+1
  3293  0E0B  300A               	movlw	10
  3294  0E0C  00F0               	movwf	___awdiv@divisor
  3295  0E0D  3000               	movlw	0
  3296  0E0E  00F1               	movwf	___awdiv@divisor+1
  3297  0E0F  0825               	movf	obtener_decenas@a,w
  3298  0E10  00A2               	movwf	??_obtener_decenas
  3299  0E11  01A3               	clrf	??_obtener_decenas+1
  3300  0E12  0822               	movf	??_obtener_decenas,w
  3301  0E13  00F2               	movwf	___awdiv@dividend
  3302  0E14  0823               	movf	??_obtener_decenas+1,w
  3303  0E15  00F3               	movwf	___awdiv@dividend+1
  3304  0E16  120A  118A  2089  120A  158A  	fcall	___awdiv
  3305  0E1B  0871               	movf	?___awdiv+1,w
  3306  0E1C  00FC               	movwf	___awmod@dividend+1
  3307  0E1D  0870               	movf	?___awdiv,w
  3308  0E1E  00FB               	movwf	___awmod@dividend
  3309  0E1F  120A  158A  27A5  120A  158A  	fcall	___awmod
  3310  0E24  0879               	movf	?___awmod,w
  3311  0E25  1283               	bcf	3,5	;RP0=0, select bank0
  3312  0E26  1303               	bcf	3,6	;RP1=0, select bank0
  3313  0E27  00A4               	movwf	??_obtener_decenas+2
  3314  0E28  0824               	movf	??_obtener_decenas+2,w
  3315  0E29  00A6               	movwf	obtener_decenas@temporal
  3316  0E2A                     l1885:	
  3317                           
  3318                           ;Main_master.c: 139:     return temporal;
  3319  0E2A  0826               	movf	obtener_decenas@temporal,w
  3320  0E2B                     l111:	
  3321  0E2B  0008               	return
  3322  0E2C                     __end_of_obtener_decenas:	
  3323                           
  3324                           	psect	text9
  3325  0FA5                     __ptext9:	
  3326 ;; *************** function ___awmod *****************
  3327 ;; Defined at:
  3328 ;;		line 5 in file "C:\Program Files (x86)\Microchip\xc8\v2.10\pic\sources\c90\common\awmod.c"
  3329 ;; Parameters:    Size  Location     Type
  3330 ;;  divisor         2    9[COMMON] int 
  3331 ;;  dividend        2   11[COMMON] int 
  3332 ;; Auto vars:     Size  Location     Type
  3333 ;;  sign            1    1[BANK0 ] unsigned char 
  3334 ;;  counter         1    0[BANK0 ] unsigned char 
  3335 ;; Return value:  Size  Location     Type
  3336 ;;                  2    9[COMMON] int 
  3337 ;; Registers used:
  3338 ;;		wreg, status,2, status,0
  3339 ;; Tracked objects:
  3340 ;;		On entry : 0/0
  3341 ;;		On exit  : 0/0
  3342 ;;		Unchanged: 0/0
  3343 ;; Data sizes:     COMMON   BANK0   BANK1   BANK3   BANK2
  3344 ;;      Params:         4       0       0       0       0
  3345 ;;      Locals:         0       2       0       0       0
  3346 ;;      Temps:          1       0       0       0       0
  3347 ;;      Totals:         5       2       0       0       0
  3348 ;;Total ram usage:        7 bytes
  3349 ;; Hardware stack levels used:    1
  3350 ;; This function calls:
  3351 ;;		Nothing
  3352 ;; This function is called by:
  3353 ;;		_obtener_unidades
  3354 ;;		_obtener_decenas
  3355 ;; This function uses a non-reentrant model
  3356 ;;
  3357                           
  3358                           
  3359                           ;psect for function ___awmod
  3360  0FA5                     ___awmod:	
  3361  0FA5                     l1535:	
  3362                           ;incstack = 0
  3363                           ; Regs used in ___awmod: [wreg+status,2+status,0]
  3364                           
  3365  0FA5  1283               	bcf	3,5	;RP0=0, select bank0
  3366  0FA6  1303               	bcf	3,6	;RP1=0, select bank0
  3367  0FA7  01A1               	clrf	___awmod@sign
  3368  0FA8                     l1537:	
  3369  0FA8  1FFC               	btfss	___awmod@dividend+1,7
  3370  0FA9  2FAB               	goto	u1261
  3371  0FAA  2FAC               	goto	u1260
  3372  0FAB                     u1261:	
  3373  0FAB  2FB3               	goto	l1543
  3374  0FAC                     u1260:	
  3375  0FAC                     l1539:	
  3376  0FAC  09FB               	comf	___awmod@dividend,f
  3377  0FAD  09FC               	comf	___awmod@dividend+1,f
  3378  0FAE  0AFB               	incf	___awmod@dividend,f
  3379  0FAF  1903               	skipnz
  3380  0FB0  0AFC               	incf	___awmod@dividend+1,f
  3381  0FB1                     l1541:	
  3382  0FB1  01A1               	clrf	___awmod@sign
  3383  0FB2  0AA1               	incf	___awmod@sign,f
  3384  0FB3                     l1543:	
  3385  0FB3  1FFA               	btfss	___awmod@divisor+1,7
  3386  0FB4  2FB6               	goto	u1271
  3387  0FB5  2FB7               	goto	u1270
  3388  0FB6                     u1271:	
  3389  0FB6  2FBC               	goto	l1547
  3390  0FB7                     u1270:	
  3391  0FB7                     l1545:	
  3392  0FB7  09F9               	comf	___awmod@divisor,f
  3393  0FB8  09FA               	comf	___awmod@divisor+1,f
  3394  0FB9  0AF9               	incf	___awmod@divisor,f
  3395  0FBA  1903               	skipnz
  3396  0FBB  0AFA               	incf	___awmod@divisor+1,f
  3397  0FBC                     l1547:	
  3398  0FBC  0879               	movf	___awmod@divisor,w
  3399  0FBD  047A               	iorwf	___awmod@divisor+1,w
  3400  0FBE  1903               	btfsc	3,2
  3401  0FBF  2FC1               	goto	u1281
  3402  0FC0  2FC2               	goto	u1280
  3403  0FC1                     u1281:	
  3404  0FC1  2FF1               	goto	l1565
  3405  0FC2                     u1280:	
  3406  0FC2                     l1549:	
  3407  0FC2  01A0               	clrf	___awmod@counter
  3408  0FC3  0AA0               	incf	___awmod@counter,f
  3409  0FC4  2FD0               	goto	l1555
  3410  0FC5                     l1551:	
  3411  0FC5  3001               	movlw	1
  3412  0FC6                     u1295:	
  3413  0FC6  1003               	clrc
  3414  0FC7  0DF9               	rlf	___awmod@divisor,f
  3415  0FC8  0DFA               	rlf	___awmod@divisor+1,f
  3416  0FC9  3EFF               	addlw	-1
  3417  0FCA  1D03               	skipz
  3418  0FCB  2FC6               	goto	u1295
  3419  0FCC                     l1553:	
  3420  0FCC  3001               	movlw	1
  3421  0FCD  00FD               	movwf	??___awmod
  3422  0FCE  087D               	movf	??___awmod,w
  3423  0FCF  07A0               	addwf	___awmod@counter,f
  3424  0FD0                     l1555:	
  3425  0FD0  1FFA               	btfss	___awmod@divisor+1,7
  3426  0FD1  2FD3               	goto	u1301
  3427  0FD2  2FD4               	goto	u1300
  3428  0FD3                     u1301:	
  3429  0FD3  2FC5               	goto	l1551
  3430  0FD4                     u1300:	
  3431  0FD4                     l1557:	
  3432  0FD4  087A               	movf	___awmod@divisor+1,w
  3433  0FD5  027C               	subwf	___awmod@dividend+1,w
  3434  0FD6  1D03               	skipz
  3435  0FD7  2FDA               	goto	u1315
  3436  0FD8  0879               	movf	___awmod@divisor,w
  3437  0FD9  027B               	subwf	___awmod@dividend,w
  3438  0FDA                     u1315:	
  3439  0FDA  1C03               	skipc
  3440  0FDB  2FDD               	goto	u1311
  3441  0FDC  2FDE               	goto	u1310
  3442  0FDD                     u1311:	
  3443  0FDD  2FE4               	goto	l1561
  3444  0FDE                     u1310:	
  3445  0FDE                     l1559:	
  3446  0FDE  0879               	movf	___awmod@divisor,w
  3447  0FDF  02FB               	subwf	___awmod@dividend,f
  3448  0FE0  087A               	movf	___awmod@divisor+1,w
  3449  0FE1  1C03               	skipc
  3450  0FE2  03FC               	decf	___awmod@dividend+1,f
  3451  0FE3  02FC               	subwf	___awmod@dividend+1,f
  3452  0FE4                     l1561:	
  3453  0FE4  3001               	movlw	1
  3454  0FE5                     u1325:	
  3455  0FE5  1003               	clrc
  3456  0FE6  0CFA               	rrf	___awmod@divisor+1,f
  3457  0FE7  0CF9               	rrf	___awmod@divisor,f
  3458  0FE8  3EFF               	addlw	-1
  3459  0FE9  1D03               	skipz
  3460  0FEA  2FE5               	goto	u1325
  3461  0FEB                     l1563:	
  3462  0FEB  3001               	movlw	1
  3463  0FEC  02A0               	subwf	___awmod@counter,f
  3464  0FED  1D03               	btfss	3,2
  3465  0FEE  2FF0               	goto	u1331
  3466  0FEF  2FF1               	goto	u1330
  3467  0FF0                     u1331:	
  3468  0FF0  2FD4               	goto	l1557
  3469  0FF1                     u1330:	
  3470  0FF1                     l1565:	
  3471  0FF1  0821               	movf	___awmod@sign,w
  3472  0FF2  1903               	btfsc	3,2
  3473  0FF3  2FF5               	goto	u1341
  3474  0FF4  2FF6               	goto	u1340
  3475  0FF5                     u1341:	
  3476  0FF5  2FFB               	goto	l1569
  3477  0FF6                     u1340:	
  3478  0FF6                     l1567:	
  3479  0FF6  09FB               	comf	___awmod@dividend,f
  3480  0FF7  09FC               	comf	___awmod@dividend+1,f
  3481  0FF8  0AFB               	incf	___awmod@dividend,f
  3482  0FF9  1903               	skipnz
  3483  0FFA  0AFC               	incf	___awmod@dividend+1,f
  3484  0FFB                     l1569:	
  3485  0FFB  087C               	movf	___awmod@dividend+1,w
  3486  0FFC  00FA               	movwf	?___awmod+1
  3487  0FFD  087B               	movf	___awmod@dividend,w
  3488  0FFE  00F9               	movwf	?___awmod
  3489  0FFF                     l461:	
  3490  0FFF  0008               	return
  3491  1000                     __end_of___awmod:	
  3492                           
  3493                           	psect	text10
  3494  0089                     __ptext10:	
  3495 ;; *************** function ___awdiv *****************
  3496 ;; Defined at:
  3497 ;;		line 5 in file "C:\Program Files (x86)\Microchip\xc8\v2.10\pic\sources\c90\common\awdiv.c"
  3498 ;; Parameters:    Size  Location     Type
  3499 ;;  divisor         2    0[COMMON] int 
  3500 ;;  dividend        2    2[COMMON] int 
  3501 ;; Auto vars:     Size  Location     Type
  3502 ;;  quotient        2    7[COMMON] int 
  3503 ;;  sign            1    6[COMMON] unsigned char 
  3504 ;;  counter         1    5[COMMON] unsigned char 
  3505 ;; Return value:  Size  Location     Type
  3506 ;;                  2    0[COMMON] int 
  3507 ;; Registers used:
  3508 ;;		wreg, status,2, status,0
  3509 ;; Tracked objects:
  3510 ;;		On entry : 0/0
  3511 ;;		On exit  : 0/0
  3512 ;;		Unchanged: 0/0
  3513 ;; Data sizes:     COMMON   BANK0   BANK1   BANK3   BANK2
  3514 ;;      Params:         4       0       0       0       0
  3515 ;;      Locals:         4       0       0       0       0
  3516 ;;      Temps:          1       0       0       0       0
  3517 ;;      Totals:         9       0       0       0       0
  3518 ;;Total ram usage:        9 bytes
  3519 ;; Hardware stack levels used:    1
  3520 ;; This function calls:
  3521 ;;		Nothing
  3522 ;; This function is called by:
  3523 ;;		_obtener_decenas
  3524 ;; This function uses a non-reentrant model
  3525 ;;
  3526                           
  3527                           
  3528                           ;psect for function ___awdiv
  3529  0089                     ___awdiv:	
  3530  0089                     l1491:	
  3531                           ;incstack = 0
  3532                           ; Regs used in ___awdiv: [wreg+status,2+status,0]
  3533                           
  3534  0089  01F6               	clrf	___awdiv@sign
  3535  008A                     l1493:	
  3536  008A  1FF1               	btfss	___awdiv@divisor+1,7
  3537  008B  288D               	goto	u1161
  3538  008C  288E               	goto	u1160
  3539  008D                     u1161:	
  3540  008D  2895               	goto	l1499
  3541  008E                     u1160:	
  3542  008E                     l1495:	
  3543  008E  09F0               	comf	___awdiv@divisor,f
  3544  008F  09F1               	comf	___awdiv@divisor+1,f
  3545  0090  0AF0               	incf	___awdiv@divisor,f
  3546  0091  1903               	skipnz
  3547  0092  0AF1               	incf	___awdiv@divisor+1,f
  3548  0093                     l1497:	
  3549  0093  01F6               	clrf	___awdiv@sign
  3550  0094  0AF6               	incf	___awdiv@sign,f
  3551  0095                     l1499:	
  3552  0095  1FF3               	btfss	___awdiv@dividend+1,7
  3553  0096  2898               	goto	u1171
  3554  0097  2899               	goto	u1170
  3555  0098                     u1171:	
  3556  0098  28A2               	goto	l1505
  3557  0099                     u1170:	
  3558  0099                     l1501:	
  3559  0099  09F2               	comf	___awdiv@dividend,f
  3560  009A  09F3               	comf	___awdiv@dividend+1,f
  3561  009B  0AF2               	incf	___awdiv@dividend,f
  3562  009C  1903               	skipnz
  3563  009D  0AF3               	incf	___awdiv@dividend+1,f
  3564  009E                     l1503:	
  3565  009E  3001               	movlw	1
  3566  009F  00F4               	movwf	??___awdiv
  3567  00A0  0874               	movf	??___awdiv,w
  3568  00A1  06F6               	xorwf	___awdiv@sign,f
  3569  00A2                     l1505:	
  3570  00A2  01F7               	clrf	___awdiv@quotient
  3571  00A3  01F8               	clrf	___awdiv@quotient+1
  3572  00A4                     l1507:	
  3573  00A4  0870               	movf	___awdiv@divisor,w
  3574  00A5  0471               	iorwf	___awdiv@divisor+1,w
  3575  00A6  1903               	btfsc	3,2
  3576  00A7  28A9               	goto	u1181
  3577  00A8  28AA               	goto	u1180
  3578  00A9                     u1181:	
  3579  00A9  28E1               	goto	l1527
  3580  00AA                     u1180:	
  3581  00AA                     l1509:	
  3582  00AA  01F5               	clrf	___awdiv@counter
  3583  00AB  0AF5               	incf	___awdiv@counter,f
  3584  00AC  28B8               	goto	l1515
  3585  00AD                     l1511:	
  3586  00AD  3001               	movlw	1
  3587  00AE                     u1195:	
  3588  00AE  1003               	clrc
  3589  00AF  0DF0               	rlf	___awdiv@divisor,f
  3590  00B0  0DF1               	rlf	___awdiv@divisor+1,f
  3591  00B1  3EFF               	addlw	-1
  3592  00B2  1D03               	skipz
  3593  00B3  28AE               	goto	u1195
  3594  00B4                     l1513:	
  3595  00B4  3001               	movlw	1
  3596  00B5  00F4               	movwf	??___awdiv
  3597  00B6  0874               	movf	??___awdiv,w
  3598  00B7  07F5               	addwf	___awdiv@counter,f
  3599  00B8                     l1515:	
  3600  00B8  1FF1               	btfss	___awdiv@divisor+1,7
  3601  00B9  28BB               	goto	u1201
  3602  00BA  28BC               	goto	u1200
  3603  00BB                     u1201:	
  3604  00BB  28AD               	goto	l1511
  3605  00BC                     u1200:	
  3606  00BC                     l1517:	
  3607  00BC  3001               	movlw	1
  3608  00BD                     u1215:	
  3609  00BD  1003               	clrc
  3610  00BE  0DF7               	rlf	___awdiv@quotient,f
  3611  00BF  0DF8               	rlf	___awdiv@quotient+1,f
  3612  00C0  3EFF               	addlw	-1
  3613  00C1  1D03               	skipz
  3614  00C2  28BD               	goto	u1215
  3615  00C3  0871               	movf	___awdiv@divisor+1,w
  3616  00C4  0273               	subwf	___awdiv@dividend+1,w
  3617  00C5  1D03               	skipz
  3618  00C6  28C9               	goto	u1225
  3619  00C7  0870               	movf	___awdiv@divisor,w
  3620  00C8  0272               	subwf	___awdiv@dividend,w
  3621  00C9                     u1225:	
  3622  00C9  1C03               	skipc
  3623  00CA  28CC               	goto	u1221
  3624  00CB  28CD               	goto	u1220
  3625  00CC                     u1221:	
  3626  00CC  28D4               	goto	l1523
  3627  00CD                     u1220:	
  3628  00CD                     l1519:	
  3629  00CD  0870               	movf	___awdiv@divisor,w
  3630  00CE  02F2               	subwf	___awdiv@dividend,f
  3631  00CF  0871               	movf	___awdiv@divisor+1,w
  3632  00D0  1C03               	skipc
  3633  00D1  03F3               	decf	___awdiv@dividend+1,f
  3634  00D2  02F3               	subwf	___awdiv@dividend+1,f
  3635  00D3                     l1521:	
  3636  00D3  1477               	bsf	___awdiv@quotient,0
  3637  00D4                     l1523:	
  3638  00D4  3001               	movlw	1
  3639  00D5                     u1235:	
  3640  00D5  1003               	clrc
  3641  00D6  0CF1               	rrf	___awdiv@divisor+1,f
  3642  00D7  0CF0               	rrf	___awdiv@divisor,f
  3643  00D8  3EFF               	addlw	-1
  3644  00D9  1D03               	skipz
  3645  00DA  28D5               	goto	u1235
  3646  00DB                     l1525:	
  3647  00DB  3001               	movlw	1
  3648  00DC  02F5               	subwf	___awdiv@counter,f
  3649  00DD  1D03               	btfss	3,2
  3650  00DE  28E0               	goto	u1241
  3651  00DF  28E1               	goto	u1240
  3652  00E0                     u1241:	
  3653  00E0  28BC               	goto	l1517
  3654  00E1                     u1240:	
  3655  00E1                     l1527:	
  3656  00E1  0876               	movf	___awdiv@sign,w
  3657  00E2  1903               	btfsc	3,2
  3658  00E3  28E5               	goto	u1251
  3659  00E4  28E6               	goto	u1250
  3660  00E5                     u1251:	
  3661  00E5  28EB               	goto	l1531
  3662  00E6                     u1250:	
  3663  00E6                     l1529:	
  3664  00E6  09F7               	comf	___awdiv@quotient,f
  3665  00E7  09F8               	comf	___awdiv@quotient+1,f
  3666  00E8  0AF7               	incf	___awdiv@quotient,f
  3667  00E9  1903               	skipnz
  3668  00EA  0AF8               	incf	___awdiv@quotient+1,f
  3669  00EB                     l1531:	
  3670  00EB  0878               	movf	___awdiv@quotient+1,w
  3671  00EC  00F1               	movwf	?___awdiv+1
  3672  00ED  0877               	movf	___awdiv@quotient,w
  3673  00EE  00F0               	movwf	?___awdiv
  3674  00EF                     l448:	
  3675  00EF  0008               	return
  3676  00F0                     __end_of___awdiv:	
  3677                           
  3678                           	psect	text11
  3679  0D21                     __ptext11:	
  3680 ;; *************** function _convertir_a_ascii *****************
  3681 ;; Defined at:
  3682 ;;		line 155 in file "Main_master.c"
  3683 ;; Parameters:    Size  Location     Type
  3684 ;;  a               1    wreg     unsigned char 
  3685 ;; Auto vars:     Size  Location     Type
  3686 ;;  a               1    1[COMMON] unsigned char 
  3687 ;;  temporal        1    2[COMMON] unsigned char 
  3688 ;; Return value:  Size  Location     Type
  3689 ;;                  1    wreg      unsigned char 
  3690 ;; Registers used:
  3691 ;;		wreg, status,2, status,0
  3692 ;; Tracked objects:
  3693 ;;		On entry : 0/0
  3694 ;;		On exit  : 0/0
  3695 ;;		Unchanged: 0/0
  3696 ;; Data sizes:     COMMON   BANK0   BANK1   BANK3   BANK2
  3697 ;;      Params:         0       0       0       0       0
  3698 ;;      Locals:         2       0       0       0       0
  3699 ;;      Temps:          1       0       0       0       0
  3700 ;;      Totals:         3       0       0       0       0
  3701 ;;Total ram usage:        3 bytes
  3702 ;; Hardware stack levels used:    1
  3703 ;; This function calls:
  3704 ;;		Nothing
  3705 ;; This function is called by:
  3706 ;;		_main
  3707 ;; This function uses a non-reentrant model
  3708 ;;
  3709                           
  3710                           
  3711                           ;psect for function _convertir_a_ascii
  3712  0D21                     _convertir_a_ascii:	
  3713                           
  3714                           ;incstack = 0
  3715                           ; Regs used in _convertir_a_ascii: [wreg+status,2+status,0]
  3716                           ;convertir_a_ascii@a stored from wreg
  3717  0D21  00F1               	movwf	convertir_a_ascii@a
  3718  0D22                     l1889:	
  3719                           
  3720                           ;Main_master.c: 156:     char temporal;;Main_master.c: 157:     temporal = a+ 0x30;
  3721  0D22  0871               	movf	convertir_a_ascii@a,w
  3722  0D23  3E30               	addlw	48
  3723  0D24  00F0               	movwf	??_convertir_a_ascii
  3724  0D25  0870               	movf	??_convertir_a_ascii,w
  3725  0D26  00F2               	movwf	convertir_a_ascii@temporal
  3726  0D27                     l1891:	
  3727                           
  3728                           ;Main_master.c: 158:     return temporal;
  3729  0D27  0872               	movf	convertir_a_ascii@temporal,w
  3730  0D28                     l120:	
  3731  0D28  0008               	return
  3732  0D29                     __end_of_convertir_a_ascii:	
  3733                           
  3734                           	psect	text12
  3735  016C                     __ptext12:	
  3736 ;; *************** function ___xxtofl *****************
  3737 ;; Defined at:
  3738 ;;		line 10 in file "C:\Program Files (x86)\Microchip\xc8\v2.10\pic\sources\c90\common\xxtofl.c"
  3739 ;; Parameters:    Size  Location     Type
  3740 ;;  sign            1    wreg     unsigned char 
  3741 ;;  val             4    0[COMMON] long 
  3742 ;; Auto vars:     Size  Location     Type
  3743 ;;  sign            1    8[COMMON] unsigned char 
  3744 ;;  arg             4   10[COMMON] unsigned long 
  3745 ;;  exp             1    9[COMMON] unsigned char 
  3746 ;; Return value:  Size  Location     Type
  3747 ;;                  4    0[COMMON] unsigned char 
  3748 ;; Registers used:
  3749 ;;		wreg, status,2, status,0
  3750 ;; Tracked objects:
  3751 ;;		On entry : 0/0
  3752 ;;		On exit  : 0/0
  3753 ;;		Unchanged: 0/0
  3754 ;; Data sizes:     COMMON   BANK0   BANK1   BANK3   BANK2
  3755 ;;      Params:         4       0       0       0       0
  3756 ;;      Locals:         6       0       0       0       0
  3757 ;;      Temps:          4       0       0       0       0
  3758 ;;      Totals:        14       0       0       0       0
  3759 ;;Total ram usage:       14 bytes
  3760 ;; Hardware stack levels used:    1
  3761 ;; This function calls:
  3762 ;;		Nothing
  3763 ;; This function is called by:
  3764 ;;		_main
  3765 ;; This function uses a non-reentrant model
  3766 ;;
  3767                           
  3768                           
  3769                           ;psect for function ___xxtofl
  3770  016C                     ___xxtofl:	
  3771                           
  3772                           ;incstack = 0
  3773                           ; Regs used in ___xxtofl: [wreg+status,2+status,0]
  3774                           ;___xxtofl@sign stored from wreg
  3775  016C  00F8               	movwf	___xxtofl@sign
  3776  016D                     l1895:	
  3777  016D  0878               	movf	___xxtofl@sign,w
  3778  016E  1903               	btfsc	3,2
  3779  016F  2971               	goto	u1931
  3780  0170  2972               	goto	u1930
  3781  0171                     u1931:	
  3782  0171  2986               	goto	l1901
  3783  0172                     u1930:	
  3784  0172                     l1897:	
  3785  0172  1FF3               	btfss	___xxtofl@val+3,7
  3786  0173  2975               	goto	u1941
  3787  0174  2976               	goto	u1940
  3788  0175                     u1941:	
  3789  0175  2986               	goto	l1901
  3790  0176                     u1940:	
  3791  0176                     l1899:	
  3792  0176  0970               	comf	___xxtofl@val,w
  3793  0177  00FA               	movwf	___xxtofl@arg
  3794  0178  0971               	comf	___xxtofl@val+1,w
  3795  0179  00FB               	movwf	___xxtofl@arg+1
  3796  017A  0972               	comf	___xxtofl@val+2,w
  3797  017B  00FC               	movwf	___xxtofl@arg+2
  3798  017C  0973               	comf	___xxtofl@val+3,w
  3799  017D  00FD               	movwf	___xxtofl@arg+3
  3800  017E  0AFA               	incf	___xxtofl@arg,f
  3801  017F  1903               	skipnz
  3802  0180  0AFB               	incf	___xxtofl@arg+1,f
  3803  0181  1903               	skipnz
  3804  0182  0AFC               	incf	___xxtofl@arg+2,f
  3805  0183  1903               	skipnz
  3806  0184  0AFD               	incf	___xxtofl@arg+3,f
  3807  0185  298E               	goto	l722
  3808  0186                     l1901:	
  3809  0186  0873               	movf	___xxtofl@val+3,w
  3810  0187  00FD               	movwf	___xxtofl@arg+3
  3811  0188  0872               	movf	___xxtofl@val+2,w
  3812  0189  00FC               	movwf	___xxtofl@arg+2
  3813  018A  0871               	movf	___xxtofl@val+1,w
  3814  018B  00FB               	movwf	___xxtofl@arg+1
  3815  018C  0870               	movf	___xxtofl@val,w
  3816  018D  00FA               	movwf	___xxtofl@arg
  3817  018E                     l722:	
  3818  018E  0873               	movf	___xxtofl@val+3,w
  3819  018F  0472               	iorwf	___xxtofl@val+2,w
  3820  0190  0471               	iorwf	___xxtofl@val+1,w
  3821  0191  0470               	iorwf	___xxtofl@val,w
  3822  0192  1D03               	skipz
  3823  0193  2995               	goto	u1951
  3824  0194  2996               	goto	u1950
  3825  0195                     u1951:	
  3826  0195  299F               	goto	l1907
  3827  0196                     u1950:	
  3828  0196                     l1903:	
  3829  0196  3000               	movlw	0
  3830  0197  00F3               	movwf	?___xxtofl+3
  3831  0198  3000               	movlw	0
  3832  0199  00F2               	movwf	?___xxtofl+2
  3833  019A  3000               	movlw	0
  3834  019B  00F1               	movwf	?___xxtofl+1
  3835  019C  3000               	movlw	0
  3836  019D  00F0               	movwf	?___xxtofl
  3837  019E  2A25               	goto	l724
  3838  019F                     l1907:	
  3839  019F  3096               	movlw	150
  3840  01A0  00F4               	movwf	??___xxtofl
  3841  01A1  0874               	movf	??___xxtofl,w
  3842  01A2  00F9               	movwf	___xxtofl@exp
  3843  01A3  29B1               	goto	l1911
  3844  01A4                     l1909:	
  3845  01A4  3001               	movlw	1
  3846  01A5  00F4               	movwf	??___xxtofl
  3847  01A6  0874               	movf	??___xxtofl,w
  3848  01A7  07F9               	addwf	___xxtofl@exp,f
  3849  01A8  3001               	movlw	1
  3850  01A9                     u1965:	
  3851  01A9  1003               	clrc
  3852  01AA  0CFD               	rrf	___xxtofl@arg+3,f
  3853  01AB  0CFC               	rrf	___xxtofl@arg+2,f
  3854  01AC  0CFB               	rrf	___xxtofl@arg+1,f
  3855  01AD  0CFA               	rrf	___xxtofl@arg,f
  3856  01AE  3EFF               	addlw	-1
  3857  01AF  1D03               	skipz
  3858  01B0  29A9               	goto	u1965
  3859  01B1                     l1911:	
  3860  01B1  30FE               	movlw	254
  3861  01B2  057D               	andwf	___xxtofl@arg+3,w
  3862  01B3  1D03               	btfss	3,2
  3863  01B4  29B6               	goto	u1971
  3864  01B5  29B7               	goto	u1970
  3865  01B6                     u1971:	
  3866  01B6  29A4               	goto	l1909
  3867  01B7                     u1970:	
  3868  01B7  29D3               	goto	l728
  3869  01B8                     l1913:	
  3870  01B8  3001               	movlw	1
  3871  01B9  00F4               	movwf	??___xxtofl
  3872  01BA  0874               	movf	??___xxtofl,w
  3873  01BB  07F9               	addwf	___xxtofl@exp,f
  3874  01BC                     l1915:	
  3875  01BC  3001               	movlw	1
  3876  01BD  07FA               	addwf	___xxtofl@arg,f
  3877  01BE  3000               	movlw	0
  3878  01BF  1803               	skipnc
  3879  01C0  3001               	movlw	1
  3880  01C1  07FB               	addwf	___xxtofl@arg+1,f
  3881  01C2  3000               	movlw	0
  3882  01C3  1803               	skipnc
  3883  01C4  3001               	movlw	1
  3884  01C5  07FC               	addwf	___xxtofl@arg+2,f
  3885  01C6  3000               	movlw	0
  3886  01C7  1803               	skipnc
  3887  01C8  3001               	movlw	1
  3888  01C9  07FD               	addwf	___xxtofl@arg+3,f
  3889  01CA                     l1917:	
  3890  01CA  3001               	movlw	1
  3891  01CB                     u1985:	
  3892  01CB  1003               	clrc
  3893  01CC  0CFD               	rrf	___xxtofl@arg+3,f
  3894  01CD  0CFC               	rrf	___xxtofl@arg+2,f
  3895  01CE  0CFB               	rrf	___xxtofl@arg+1,f
  3896  01CF  0CFA               	rrf	___xxtofl@arg,f
  3897  01D0  3EFF               	addlw	-1
  3898  01D1  1D03               	skipz
  3899  01D2  29CB               	goto	u1985
  3900  01D3                     l728:	
  3901  01D3  30FF               	movlw	255
  3902  01D4  057D               	andwf	___xxtofl@arg+3,w
  3903  01D5  1D03               	btfss	3,2
  3904  01D6  29D8               	goto	u1991
  3905  01D7  29D9               	goto	u1990
  3906  01D8                     u1991:	
  3907  01D8  29B8               	goto	l1913
  3908  01D9                     u1990:	
  3909  01D9  29E5               	goto	l1921
  3910  01DA                     l1919:	
  3911  01DA  3001               	movlw	1
  3912  01DB  02F9               	subwf	___xxtofl@exp,f
  3913  01DC  3001               	movlw	1
  3914  01DD  00F4               	movwf	??___xxtofl
  3915  01DE                     u2005:	
  3916  01DE  1003               	clrc
  3917  01DF  0DFA               	rlf	___xxtofl@arg,f
  3918  01E0  0DFB               	rlf	___xxtofl@arg+1,f
  3919  01E1  0DFC               	rlf	___xxtofl@arg+2,f
  3920  01E2  0DFD               	rlf	___xxtofl@arg+3,f
  3921  01E3  0BF4               	decfsz	??___xxtofl,f
  3922  01E4  29DE               	goto	u2005
  3923  01E5                     l1921:	
  3924  01E5  1BFC               	btfsc	___xxtofl@arg+2,7
  3925  01E6  29E8               	goto	u2011
  3926  01E7  29E9               	goto	u2010
  3927  01E8                     u2011:	
  3928  01E8  29EF               	goto	l735
  3929  01E9                     u2010:	
  3930  01E9                     l1923:	
  3931  01E9  3002               	movlw	2
  3932  01EA  0279               	subwf	___xxtofl@exp,w
  3933  01EB  1803               	skipnc
  3934  01EC  29EE               	goto	u2021
  3935  01ED  29EF               	goto	u2020
  3936  01EE                     u2021:	
  3937  01EE  29DA               	goto	l1919
  3938  01EF                     u2020:	
  3939  01EF                     l735:	
  3940  01EF  1879               	btfsc	___xxtofl@exp,0
  3941  01F0  29F2               	goto	u2031
  3942  01F1  29F3               	goto	u2030
  3943  01F2                     u2031:	
  3944  01F2  29FB               	goto	l736
  3945  01F3                     u2030:	
  3946  01F3                     l1925:	
  3947  01F3  30FF               	movlw	255
  3948  01F4  05FA               	andwf	___xxtofl@arg,f
  3949  01F5  30FF               	movlw	255
  3950  01F6  05FB               	andwf	___xxtofl@arg+1,f
  3951  01F7  307F               	movlw	127
  3952  01F8  05FC               	andwf	___xxtofl@arg+2,f
  3953  01F9  30FF               	movlw	255
  3954  01FA  05FD               	andwf	___xxtofl@arg+3,f
  3955  01FB                     l736:	
  3956  01FB  1003               	clrc
  3957  01FC  0CF9               	rrf	___xxtofl@exp,f
  3958  01FD                     l1927:	
  3959  01FD  0879               	movf	___xxtofl@exp,w
  3960  01FE  00F4               	movwf	??___xxtofl
  3961  01FF  01F5               	clrf	??___xxtofl+1
  3962  0200  01F6               	clrf	??___xxtofl+2
  3963  0201  01F7               	clrf	??___xxtofl+3
  3964  0202  3018               	movlw	24
  3965  0203                     u2045:	
  3966  0203  1003               	clrc
  3967  0204  0DF4               	rlf	??___xxtofl,f
  3968  0205  0DF5               	rlf	??___xxtofl+1,f
  3969  0206  0DF6               	rlf	??___xxtofl+2,f
  3970  0207  0DF7               	rlf	??___xxtofl+3,f
  3971  0208                     u2040:	
  3972  0208  3EFF               	addlw	-1
  3973  0209  1D03               	skipz
  3974  020A  2A03               	goto	u2045
  3975  020B  0874               	movf	??___xxtofl,w
  3976  020C  04FA               	iorwf	___xxtofl@arg,f
  3977  020D  0875               	movf	??___xxtofl+1,w
  3978  020E  04FB               	iorwf	___xxtofl@arg+1,f
  3979  020F  0876               	movf	??___xxtofl+2,w
  3980  0210  04FC               	iorwf	___xxtofl@arg+2,f
  3981  0211  0877               	movf	??___xxtofl+3,w
  3982  0212  04FD               	iorwf	___xxtofl@arg+3,f
  3983  0213                     l1929:	
  3984  0213  0878               	movf	___xxtofl@sign,w
  3985  0214  1903               	btfsc	3,2
  3986  0215  2A17               	goto	u2051
  3987  0216  2A18               	goto	u2050
  3988  0217                     u2051:	
  3989  0217  2A1D               	goto	l1935
  3990  0218                     u2050:	
  3991  0218                     l1931:	
  3992  0218  1FF3               	btfss	___xxtofl@val+3,7
  3993  0219  2A1B               	goto	u2061
  3994  021A  2A1C               	goto	u2060
  3995  021B                     u2061:	
  3996  021B  2A1D               	goto	l1935
  3997  021C                     u2060:	
  3998  021C                     l1933:	
  3999  021C  17FD               	bsf	___xxtofl@arg+3,7
  4000  021D                     l1935:	
  4001  021D  087D               	movf	___xxtofl@arg+3,w
  4002  021E  00F3               	movwf	?___xxtofl+3
  4003  021F  087C               	movf	___xxtofl@arg+2,w
  4004  0220  00F2               	movwf	?___xxtofl+2
  4005  0221  087B               	movf	___xxtofl@arg+1,w
  4006  0222  00F1               	movwf	?___xxtofl+1
  4007  0223  087A               	movf	___xxtofl@arg,w
  4008  0224  00F0               	movwf	?___xxtofl
  4009  0225                     l724:	
  4010  0225  0008               	return
  4011  0226                     __end_of___xxtofl:	
  4012                           
  4013                           	psect	text13
  4014  0D43                     __ptext13:	
  4015 ;; *************** function _Write_I2C_Master *****************
  4016 ;; Defined at:
  4017 ;;		line 61 in file "I2C.c"
  4018 ;; Parameters:    Size  Location     Type
  4019 ;;  a               2    0[COMMON] unsigned int 
  4020 ;; Auto vars:     Size  Location     Type
  4021 ;;		None
  4022 ;; Return value:  Size  Location     Type
  4023 ;;                  1    wreg      void 
  4024 ;; Registers used:
  4025 ;;		wreg, status,2, status,0, pclath, cstack
  4026 ;; Tracked objects:
  4027 ;;		On entry : 0/0
  4028 ;;		On exit  : 0/0
  4029 ;;		Unchanged: 0/0
  4030 ;; Data sizes:     COMMON   BANK0   BANK1   BANK3   BANK2
  4031 ;;      Params:         2       0       0       0       0
  4032 ;;      Locals:         0       0       0       0       0
  4033 ;;      Temps:          0       0       0       0       0
  4034 ;;      Totals:         2       0       0       0       0
  4035 ;;Total ram usage:        2 bytes
  4036 ;; Hardware stack levels used:    1
  4037 ;; Hardware stack levels required when called:    1
  4038 ;; This function calls:
  4039 ;;		_Wait_I2C_Master
  4040 ;; This function is called by:
  4041 ;;		_main
  4042 ;; This function uses a non-reentrant model
  4043 ;;
  4044                           
  4045                           
  4046                           ;psect for function _Write_I2C_Master
  4047  0D43                     _Write_I2C_Master:	
  4048  0D43                     l1837:	
  4049                           ;incstack = 0
  4050                           ; Regs used in _Write_I2C_Master: [wreg+status,2+status,0+pclath+cstack]
  4051                           
  4052                           
  4053                           ;I2C.c: 62:     Wait_I2C_Master();
  4054  0D43  120A  158A  254D  120A  158A  	fcall	_Wait_I2C_Master
  4055  0D48                     l1839:	
  4056                           
  4057                           ;I2C.c: 63:     SSPBUF = a;
  4058  0D48  0870               	movf	Write_I2C_Master@a,w
  4059  0D49  1283               	bcf	3,5	;RP0=0, select bank0
  4060  0D4A  1303               	bcf	3,6	;RP1=0, select bank0
  4061  0D4B  0093               	movwf	19	;volatile
  4062  0D4C                     l204:	
  4063  0D4C  0008               	return
  4064  0D4D                     __end_of_Write_I2C_Master:	
  4065                           
  4066                           	psect	text14
  4067  0D3A                     __ptext14:	
  4068 ;; *************** function _Stop_I2C_Master *****************
  4069 ;; Defined at:
  4070 ;;		line 56 in file "I2C.c"
  4071 ;; Parameters:    Size  Location     Type
  4072 ;;		None
  4073 ;; Auto vars:     Size  Location     Type
  4074 ;;		None
  4075 ;; Return value:  Size  Location     Type
  4076 ;;                  1    wreg      void 
  4077 ;; Registers used:
  4078 ;;		wreg, status,2, status,0, pclath, cstack
  4079 ;; Tracked objects:
  4080 ;;		On entry : 0/0
  4081 ;;		On exit  : 0/0
  4082 ;;		Unchanged: 0/0
  4083 ;; Data sizes:     COMMON   BANK0   BANK1   BANK3   BANK2
  4084 ;;      Params:         0       0       0       0       0
  4085 ;;      Locals:         0       0       0       0       0
  4086 ;;      Temps:          0       0       0       0       0
  4087 ;;      Totals:         0       0       0       0       0
  4088 ;;Total ram usage:        0 bytes
  4089 ;; Hardware stack levels used:    1
  4090 ;; Hardware stack levels required when called:    1
  4091 ;; This function calls:
  4092 ;;		_Wait_I2C_Master
  4093 ;; This function is called by:
  4094 ;;		_main
  4095 ;; This function uses a non-reentrant model
  4096 ;;
  4097                           
  4098                           
  4099                           ;psect for function _Stop_I2C_Master
  4100  0D3A                     _Stop_I2C_Master:	
  4101  0D3A                     l1857:	
  4102                           ;incstack = 0
  4103                           ; Regs used in _Stop_I2C_Master: [wreg+status,2+status,0+pclath+cstack]
  4104                           
  4105                           
  4106                           ;I2C.c: 57:     Wait_I2C_Master();
  4107  0D3A  120A  158A  254D  120A  158A  	fcall	_Wait_I2C_Master
  4108  0D3F                     l1859:	
  4109                           
  4110                           ;I2C.c: 58:     SSPCON2bits.PEN = 1;
  4111  0D3F  1683               	bsf	3,5	;RP0=1, select bank1
  4112  0D40  1303               	bcf	3,6	;RP1=0, select bank1
  4113  0D41  1511               	bsf	17,2	;volatile
  4114  0D42                     l201:	
  4115  0D42  0008               	return
  4116  0D43                     __end_of_Stop_I2C_Master:	
  4117                           
  4118                           	psect	text15
  4119  0D31                     __ptext15:	
  4120 ;; *************** function _Start_I2C_Master *****************
  4121 ;; Defined at:
  4122 ;;		line 46 in file "I2C.c"
  4123 ;; Parameters:    Size  Location     Type
  4124 ;;		None
  4125 ;; Auto vars:     Size  Location     Type
  4126 ;;		None
  4127 ;; Return value:  Size  Location     Type
  4128 ;;                  1    wreg      void 
  4129 ;; Registers used:
  4130 ;;		wreg, status,2, status,0, pclath, cstack
  4131 ;; Tracked objects:
  4132 ;;		On entry : 0/0
  4133 ;;		On exit  : 0/0
  4134 ;;		Unchanged: 0/0
  4135 ;; Data sizes:     COMMON   BANK0   BANK1   BANK3   BANK2
  4136 ;;      Params:         0       0       0       0       0
  4137 ;;      Locals:         0       0       0       0       0
  4138 ;;      Temps:          0       0       0       0       0
  4139 ;;      Totals:         0       0       0       0       0
  4140 ;;Total ram usage:        0 bytes
  4141 ;; Hardware stack levels used:    1
  4142 ;; Hardware stack levels required when called:    1
  4143 ;; This function calls:
  4144 ;;		_Wait_I2C_Master
  4145 ;; This function is called by:
  4146 ;;		_main
  4147 ;; This function uses a non-reentrant model
  4148 ;;
  4149                           
  4150                           
  4151                           ;psect for function _Start_I2C_Master
  4152  0D31                     _Start_I2C_Master:	
  4153  0D31                     l1833:	
  4154                           ;incstack = 0
  4155                           ; Regs used in _Start_I2C_Master: [wreg+status,2+status,0+pclath+cstack]
  4156                           
  4157                           
  4158                           ;I2C.c: 47:     Wait_I2C_Master();
  4159  0D31  120A  158A  254D  120A  158A  	fcall	_Wait_I2C_Master
  4160  0D36                     l1835:	
  4161                           
  4162                           ;I2C.c: 48:     SSPCON2bits.SEN = 1;
  4163  0D36  1683               	bsf	3,5	;RP0=1, select bank1
  4164  0D37  1303               	bcf	3,6	;RP1=0, select bank1
  4165  0D38  1411               	bsf	17,0	;volatile
  4166  0D39                     l195:	
  4167  0D39  0008               	return
  4168  0D3A                     __end_of_Start_I2C_Master:	
  4169                           
  4170                           	psect	text16
  4171  0DB8                     __ptext16:	
  4172 ;; *************** function _LCD_WRITE_STRING *****************
  4173 ;; Defined at:
  4174 ;;		line 70 in file "../Digital2_LabLCD/LCD_8bits_lib.c"
  4175 ;; Parameters:    Size  Location     Type
  4176 ;;  a               1    wreg     PTR unsigned char 
  4177 ;;		 -> STR_3(2), STR_2(2), STR_1(17), 
  4178 ;; Auto vars:     Size  Location     Type
  4179 ;;  a               1    5[COMMON] PTR unsigned char 
  4180 ;;		 -> STR_3(2), STR_2(2), STR_1(17), 
  4181 ;;  i               2    3[COMMON] int 
  4182 ;; Return value:  Size  Location     Type
  4183 ;;                  1    wreg      void 
  4184 ;; Registers used:
  4185 ;;		wreg, fsr0l, fsr0h, status,2, status,0, pclath, cstack
  4186 ;; Tracked objects:
  4187 ;;		On entry : 0/0
  4188 ;;		On exit  : 0/0
  4189 ;;		Unchanged: 0/0
  4190 ;; Data sizes:     COMMON   BANK0   BANK1   BANK3   BANK2
  4191 ;;      Params:         0       0       0       0       0
  4192 ;;      Locals:         3       0       0       0       0
  4193 ;;      Temps:          0       0       0       0       0
  4194 ;;      Totals:         3       0       0       0       0
  4195 ;;Total ram usage:        3 bytes
  4196 ;; Hardware stack levels used:    1
  4197 ;; Hardware stack levels required when called:    1
  4198 ;; This function calls:
  4199 ;;		_LCD_WRITE_CHAR
  4200 ;; This function is called by:
  4201 ;;		_main
  4202 ;; This function uses a non-reentrant model
  4203 ;;
  4204                           
  4205                           
  4206                           ;psect for function _LCD_WRITE_STRING
  4207  0DB8                     _LCD_WRITE_STRING:	
  4208                           
  4209                           ;incstack = 0
  4210                           ; Regs used in _LCD_WRITE_STRING: [wreg-fsr0h+status,2+status,0+pclath+cstack]
  4211                           ;LCD_WRITE_STRING@a stored from wreg
  4212  0DB8  00F5               	movwf	LCD_WRITE_STRING@a
  4213  0DB9                     l1825:	
  4214                           
  4215                           ;../Digital2_LabLCD/LCD_8bits_lib.c: 71:     int i;;../Digital2_LabLCD/LCD_8bits_lib.c: 
      +                          72:     for(i=0; a[i]!='\0'; i++)
  4216  0DB9  01F3               	clrf	LCD_WRITE_STRING@i
  4217  0DBA  01F4               	clrf	LCD_WRITE_STRING@i+1
  4218  0DBB  2DCF               	goto	l1831
  4219  0DBC                     l1827:	
  4220                           
  4221                           ;../Digital2_LabLCD/LCD_8bits_lib.c: 73:         LCD_WRITE_CHAR(a[i]);
  4222  0DBC  0873               	movf	LCD_WRITE_STRING@i,w
  4223  0DBD  0775               	addwf	LCD_WRITE_STRING@a,w
  4224  0DBE  0084               	movwf	4
  4225  0DBF  120A  158A  2000  120A  158A  	fcall	stringdir
  4226  0DC4  120A  158A  257D  120A  158A  	fcall	_LCD_WRITE_CHAR
  4227  0DC9                     l1829:	
  4228  0DC9  3001               	movlw	1
  4229  0DCA  07F3               	addwf	LCD_WRITE_STRING@i,f
  4230  0DCB  1803               	skipnc
  4231  0DCC  0AF4               	incf	LCD_WRITE_STRING@i+1,f
  4232  0DCD  3000               	movlw	0
  4233  0DCE  07F4               	addwf	LCD_WRITE_STRING@i+1,f
  4234  0DCF                     l1831:	
  4235  0DCF  0873               	movf	LCD_WRITE_STRING@i,w
  4236  0DD0  0775               	addwf	LCD_WRITE_STRING@a,w
  4237  0DD1  0084               	movwf	4
  4238  0DD2  120A  158A  2000  120A  158A  	fcall	stringdir
  4239  0DD7  3A00               	xorlw	0
  4240  0DD8  1D03               	skipz
  4241  0DD9  2DDB               	goto	u1911
  4242  0DDA  2DDC               	goto	u1910
  4243  0DDB                     u1911:	
  4244  0DDB  2DBC               	goto	l1827
  4245  0DDC                     u1910:	
  4246  0DDC                     l150:	
  4247  0DDC  0008               	return
  4248  0DDD                     __end_of_LCD_WRITE_STRING:	
  4249                           
  4250                           	psect	text17
  4251  0D7D                     __ptext17:	
  4252 ;; *************** function _LCD_WRITE_CHAR *****************
  4253 ;; Defined at:
  4254 ;;		line 61 in file "../Digital2_LabLCD/LCD_8bits_lib.c"
  4255 ;; Parameters:    Size  Location     Type
  4256 ;;  a               1    wreg     unsigned char 
  4257 ;; Auto vars:     Size  Location     Type
  4258 ;;  a               1    2[COMMON] unsigned char 
  4259 ;; Return value:  Size  Location     Type
  4260 ;;                  1    wreg      void 
  4261 ;; Registers used:
  4262 ;;		wreg
  4263 ;; Tracked objects:
  4264 ;;		On entry : 0/0
  4265 ;;		On exit  : 0/0
  4266 ;;		Unchanged: 0/0
  4267 ;; Data sizes:     COMMON   BANK0   BANK1   BANK3   BANK2
  4268 ;;      Params:         0       0       0       0       0
  4269 ;;      Locals:         1       0       0       0       0
  4270 ;;      Temps:          2       0       0       0       0
  4271 ;;      Totals:         3       0       0       0       0
  4272 ;;Total ram usage:        3 bytes
  4273 ;; Hardware stack levels used:    1
  4274 ;; This function calls:
  4275 ;;		Nothing
  4276 ;; This function is called by:
  4277 ;;		_main
  4278 ;;		_LCD_WRITE_STRING
  4279 ;; This function uses a non-reentrant model
  4280 ;;
  4281                           
  4282                           
  4283                           ;psect for function _LCD_WRITE_CHAR
  4284  0D7D                     _LCD_WRITE_CHAR:	
  4285                           
  4286                           ;incstack = 0
  4287                           ; Regs used in _LCD_WRITE_CHAR: [wreg]
  4288                           ;LCD_WRITE_CHAR@a stored from wreg
  4289  0D7D  00F2               	movwf	LCD_WRITE_CHAR@a
  4290  0D7E                     l1445:	
  4291                           
  4292                           ;../Digital2_LabLCD/LCD_8bits_lib.c: 62:     PORTDbits.RD5 = 1;
  4293  0D7E  1283               	bcf	3,5	;RP0=0, select bank0
  4294  0D7F  1303               	bcf	3,6	;RP1=0, select bank0
  4295  0D80  1688               	bsf	8,5	;volatile
  4296  0D81                     l1447:	
  4297                           
  4298                           ;../Digital2_LabLCD/LCD_8bits_lib.c: 63:     PORTB = a;
  4299  0D81  0872               	movf	LCD_WRITE_CHAR@a,w
  4300  0D82  0086               	movwf	6	;volatile
  4301  0D83                     l1449:	
  4302                           
  4303                           ;../Digital2_LabLCD/LCD_8bits_lib.c: 64:     PORTDbits.RD7 = 1;
  4304  0D83  1788               	bsf	8,7	;volatile
  4305                           
  4306                           ;../Digital2_LabLCD/LCD_8bits_lib.c: 65:     _delay((unsigned long)((40)*(4000000/400000
      +                          0.0)));
  4307  0D84  300D               	movlw	13
  4308  0D85  00F0               	movwf	??_LCD_WRITE_CHAR
  4309  0D86                     u2107:	
  4310  0D86  0BF0               	decfsz	??_LCD_WRITE_CHAR,f
  4311  0D87  2D86               	goto	u2107
  4312  0D88                     l1451:	
  4313                           
  4314                           ;../Digital2_LabLCD/LCD_8bits_lib.c: 66:     PORTDbits.RD7 = 0;
  4315  0D88  1283               	bcf	3,5	;RP0=0, select bank0
  4316  0D89  1303               	bcf	3,6	;RP1=0, select bank0
  4317  0D8A  1388               	bcf	8,7	;volatile
  4318                           
  4319                           ;../Digital2_LabLCD/LCD_8bits_lib.c: 67:     _delay((unsigned long)((5)*(4000000/4000.0)
      +                          ));
  4320  0D8B  3007               	movlw	7
  4321  0D8C  00F1               	movwf	??_LCD_WRITE_CHAR+1
  4322  0D8D  307D               	movlw	125
  4323  0D8E  00F0               	movwf	??_LCD_WRITE_CHAR
  4324  0D8F                     u2117:	
  4325  0D8F  0BF0               	decfsz	??_LCD_WRITE_CHAR,f
  4326  0D90  2D8F               	goto	u2117
  4327  0D91  0BF1               	decfsz	??_LCD_WRITE_CHAR+1,f
  4328  0D92  2D8F               	goto	u2117
  4329  0D93                     l144:	
  4330  0D93  0008               	return
  4331  0D94                     __end_of_LCD_WRITE_CHAR:	
  4332                           
  4333                           	psect	text18
  4334  0D94                     __ptext18:	
  4335 ;; *************** function _LCD_SET_CURSOR *****************
  4336 ;; Defined at:
  4337 ;;		line 29 in file "../Digital2_LabLCD/LCD_8bits_lib.c"
  4338 ;; Parameters:    Size  Location     Type
  4339 ;;  a               1    wreg     unsigned char 
  4340 ;;  b               1    3[COMMON] unsigned char 
  4341 ;; Auto vars:     Size  Location     Type
  4342 ;;  a               1    5[COMMON] unsigned char 
  4343 ;;  temporal        1    6[COMMON] unsigned char 
  4344 ;; Return value:  Size  Location     Type
  4345 ;;                  1    wreg      void 
  4346 ;; Registers used:
  4347 ;;		wreg, status,2, status,0, pclath, cstack
  4348 ;; Tracked objects:
  4349 ;;		On entry : 0/0
  4350 ;;		On exit  : 0/0
  4351 ;;		Unchanged: 0/0
  4352 ;; Data sizes:     COMMON   BANK0   BANK1   BANK3   BANK2
  4353 ;;      Params:         1       0       0       0       0
  4354 ;;      Locals:         2       0       0       0       0
  4355 ;;      Temps:          1       0       0       0       0
  4356 ;;      Totals:         4       0       0       0       0
  4357 ;;Total ram usage:        4 bytes
  4358 ;; Hardware stack levels used:    1
  4359 ;; Hardware stack levels required when called:    1
  4360 ;; This function calls:
  4361 ;;		_LCD_CMD
  4362 ;; This function is called by:
  4363 ;;		_main
  4364 ;; This function uses a non-reentrant model
  4365 ;;
  4366                           
  4367                           
  4368                           ;psect for function _LCD_SET_CURSOR
  4369  0D94                     _LCD_SET_CURSOR:	
  4370                           
  4371                           ;incstack = 0
  4372                           ; Regs used in _LCD_SET_CURSOR: [wreg+status,2+status,0+pclath+cstack]
  4373                           ;LCD_SET_CURSOR@a stored from wreg
  4374  0D94  00F5               	movwf	LCD_SET_CURSOR@a
  4375  0D95                     l1813:	
  4376                           
  4377                           ;../Digital2_LabLCD/LCD_8bits_lib.c: 30:     uint8_t temporal;;../Digital2_LabLCD/LCD_8b
      +                          its_lib.c: 31:     if (a == 1) {
  4378  0D95  0375               	decf	LCD_SET_CURSOR@a,w
  4379  0D96  1D03               	btfss	3,2
  4380  0D97  2D99               	goto	u1891
  4381  0D98  2D9A               	goto	u1890
  4382  0D99                     u1891:	
  4383  0D99  2DA6               	goto	l1819
  4384  0D9A                     u1890:	
  4385  0D9A                     l1815:	
  4386                           
  4387                           ;../Digital2_LabLCD/LCD_8bits_lib.c: 32:         temporal = 0x80 + b - 1;
  4388  0D9A  0873               	movf	LCD_SET_CURSOR@b,w
  4389  0D9B  3E7F               	addlw	127
  4390  0D9C  00F4               	movwf	??_LCD_SET_CURSOR
  4391  0D9D  0874               	movf	??_LCD_SET_CURSOR,w
  4392  0D9E  00F6               	movwf	LCD_SET_CURSOR@temporal
  4393  0D9F                     l1817:	
  4394                           
  4395                           ;../Digital2_LabLCD/LCD_8bits_lib.c: 33:         LCD_CMD(temporal);
  4396  0D9F  0876               	movf	LCD_SET_CURSOR@temporal,w
  4397  0DA0  120A  158A  2567  120A  158A  	fcall	_LCD_CMD
  4398                           
  4399                           ;../Digital2_LabLCD/LCD_8bits_lib.c: 34:     }
  4400  0DA5  2DB7               	goto	l138
  4401  0DA6                     l1819:	
  4402  0DA6  3002               	movlw	2
  4403  0DA7  0675               	xorwf	LCD_SET_CURSOR@a,w
  4404  0DA8  1D03               	btfss	3,2
  4405  0DA9  2DAB               	goto	u1901
  4406  0DAA  2DAC               	goto	u1900
  4407  0DAB                     u1901:	
  4408  0DAB  2DB7               	goto	l138
  4409  0DAC                     u1900:	
  4410  0DAC                     l1821:	
  4411                           
  4412                           ;../Digital2_LabLCD/LCD_8bits_lib.c: 36:         temporal = 0xC0 + b - 1;
  4413  0DAC  0873               	movf	LCD_SET_CURSOR@b,w
  4414  0DAD  3EBF               	addlw	191
  4415  0DAE  00F4               	movwf	??_LCD_SET_CURSOR
  4416  0DAF  0874               	movf	??_LCD_SET_CURSOR,w
  4417  0DB0  00F6               	movwf	LCD_SET_CURSOR@temporal
  4418  0DB1                     l1823:	
  4419                           
  4420                           ;../Digital2_LabLCD/LCD_8bits_lib.c: 37:         LCD_CMD(temporal);
  4421  0DB1  0876               	movf	LCD_SET_CURSOR@temporal,w
  4422  0DB2  120A  158A  2567  120A  158A  	fcall	_LCD_CMD
  4423  0DB7                     l138:	
  4424  0DB7  0008               	return
  4425  0DB8                     __end_of_LCD_SET_CURSOR:	
  4426                           
  4427                           	psect	text19
  4428  0F52                     __ptext19:	
  4429 ;; *************** function _LCD_INIT *****************
  4430 ;; Defined at:
  4431 ;;		line 41 in file "../Digital2_LabLCD/LCD_8bits_lib.c"
  4432 ;; Parameters:    Size  Location     Type
  4433 ;;		None
  4434 ;; Auto vars:     Size  Location     Type
  4435 ;;		None
  4436 ;; Return value:  Size  Location     Type
  4437 ;;                  1    wreg      void 
  4438 ;; Registers used:
  4439 ;;		wreg, status,2, status,0, pclath, cstack
  4440 ;; Tracked objects:
  4441 ;;		On entry : 0/0
  4442 ;;		On exit  : 0/0
  4443 ;;		Unchanged: 0/0
  4444 ;; Data sizes:     COMMON   BANK0   BANK1   BANK3   BANK2
  4445 ;;      Params:         0       0       0       0       0
  4446 ;;      Locals:         0       0       0       0       0
  4447 ;;      Temps:          2       0       0       0       0
  4448 ;;      Totals:         2       0       0       0       0
  4449 ;;Total ram usage:        2 bytes
  4450 ;; Hardware stack levels used:    1
  4451 ;; Hardware stack levels required when called:    1
  4452 ;; This function calls:
  4453 ;;		_LCD_CMD
  4454 ;; This function is called by:
  4455 ;;		_main
  4456 ;; This function uses a non-reentrant model
  4457 ;;
  4458                           
  4459                           
  4460                           ;psect for function _LCD_INIT
  4461  0F52                     _LCD_INIT:	
  4462  0F52                     l1785:	
  4463                           ;incstack = 0
  4464                           ; Regs used in _LCD_INIT: [wreg+status,2+status,0+pclath+cstack]
  4465                           
  4466                           
  4467                           ;../Digital2_LabLCD/LCD_8bits_lib.c: 42:     PORTB = 0;
  4468  0F52  1283               	bcf	3,5	;RP0=0, select bank0
  4469  0F53  1303               	bcf	3,6	;RP1=0, select bank0
  4470  0F54  0186               	clrf	6	;volatile
  4471  0F55                     l1787:	
  4472                           
  4473                           ;../Digital2_LabLCD/LCD_8bits_lib.c: 43:     _delay((unsigned long)((15)*(4000000/4000.0
      +                          )));
  4474  0F55  3014               	movlw	20
  4475  0F56  00F4               	movwf	??_LCD_INIT+1
  4476  0F57  3079               	movlw	121
  4477  0F58  00F3               	movwf	??_LCD_INIT
  4478  0F59                     u2127:	
  4479  0F59  0BF3               	decfsz	??_LCD_INIT,f
  4480  0F5A  2F59               	goto	u2127
  4481  0F5B  0BF4               	decfsz	??_LCD_INIT+1,f
  4482  0F5C  2F59               	goto	u2127
  4483  0F5D  2F5E               	nop2
  4484  0F5E                     l1789:	
  4485                           
  4486                           ;../Digital2_LabLCD/LCD_8bits_lib.c: 44:     LCD_CMD(0x30);
  4487  0F5E  3030               	movlw	48
  4488  0F5F  120A  158A  2567  120A  158A  	fcall	_LCD_CMD
  4489  0F64                     l1791:	
  4490                           
  4491                           ;../Digital2_LabLCD/LCD_8bits_lib.c: 45:     _delay((unsigned long)((5)*(4000000/4000.0)
      +                          ));
  4492  0F64  3007               	movlw	7
  4493  0F65  00F4               	movwf	??_LCD_INIT+1
  4494  0F66  307D               	movlw	125
  4495  0F67  00F3               	movwf	??_LCD_INIT
  4496  0F68                     u2137:	
  4497  0F68  0BF3               	decfsz	??_LCD_INIT,f
  4498  0F69  2F68               	goto	u2137
  4499  0F6A  0BF4               	decfsz	??_LCD_INIT+1,f
  4500  0F6B  2F68               	goto	u2137
  4501  0F6C                     l1793:	
  4502                           
  4503                           ;../Digital2_LabLCD/LCD_8bits_lib.c: 46:     LCD_CMD(0x30);
  4504  0F6C  3030               	movlw	48
  4505  0F6D  120A  158A  2567  120A  158A  	fcall	_LCD_CMD
  4506  0F72                     l1795:	
  4507                           
  4508                           ;../Digital2_LabLCD/LCD_8bits_lib.c: 47:     _delay((unsigned long)((160)*(4000000/40000
      +                          00.0)));
  4509  0F72  3035               	movlw	53
  4510  0F73  00F3               	movwf	??_LCD_INIT
  4511  0F74                     u2147:	
  4512  0F74  0BF3               	decfsz	??_LCD_INIT,f
  4513  0F75  2F74               	goto	u2147
  4514  0F76                     l1797:	
  4515                           
  4516                           ;../Digital2_LabLCD/LCD_8bits_lib.c: 48:     LCD_CMD(0x30);
  4517  0F76  3030               	movlw	48
  4518  0F77  120A  158A  2567  120A  158A  	fcall	_LCD_CMD
  4519  0F7C                     l1799:	
  4520                           
  4521                           ;../Digital2_LabLCD/LCD_8bits_lib.c: 49:     _delay((unsigned long)((160)*(4000000/40000
      +                          00.0)));
  4522  0F7C  3035               	movlw	53
  4523  0F7D  00F3               	movwf	??_LCD_INIT
  4524  0F7E                     u2157:	
  4525  0F7E  0BF3               	decfsz	??_LCD_INIT,f
  4526  0F7F  2F7E               	goto	u2157
  4527  0F80                     l1801:	
  4528                           
  4529                           ;../Digital2_LabLCD/LCD_8bits_lib.c: 52:     LCD_CMD(0x02);
  4530  0F80  3002               	movlw	2
  4531  0F81  120A  158A  2567  120A  158A  	fcall	_LCD_CMD
  4532  0F86                     l1803:	
  4533                           
  4534                           ;../Digital2_LabLCD/LCD_8bits_lib.c: 53:     LCD_CMD(0x38);
  4535  0F86  3038               	movlw	56
  4536  0F87  120A  158A  2567  120A  158A  	fcall	_LCD_CMD
  4537  0F8C                     l1805:	
  4538                           
  4539                           ;../Digital2_LabLCD/LCD_8bits_lib.c: 54:     LCD_CMD(0x08);
  4540  0F8C  3008               	movlw	8
  4541  0F8D  120A  158A  2567  120A  158A  	fcall	_LCD_CMD
  4542  0F92                     l1807:	
  4543                           
  4544                           ;../Digital2_LabLCD/LCD_8bits_lib.c: 55:     LCD_CMD(0x01);
  4545  0F92  3001               	movlw	1
  4546  0F93  120A  158A  2567  120A  158A  	fcall	_LCD_CMD
  4547  0F98                     l1809:	
  4548                           
  4549                           ;../Digital2_LabLCD/LCD_8bits_lib.c: 56:     LCD_CMD(0x06);
  4550  0F98  3006               	movlw	6
  4551  0F99  120A  158A  2567  120A  158A  	fcall	_LCD_CMD
  4552  0F9E                     l1811:	
  4553                           
  4554                           ;../Digital2_LabLCD/LCD_8bits_lib.c: 57:     LCD_CMD(0x0C);
  4555  0F9E  300C               	movlw	12
  4556  0F9F  120A  158A  2567  120A  158A  	fcall	_LCD_CMD
  4557  0FA4                     l141:	
  4558  0FA4  0008               	return
  4559  0FA5                     __end_of_LCD_INIT:	
  4560                           
  4561                           	psect	text20
  4562  0D67                     __ptext20:	
  4563 ;; *************** function _LCD_CMD *****************
  4564 ;; Defined at:
  4565 ;;		line 16 in file "../Digital2_LabLCD/LCD_8bits_lib.c"
  4566 ;; Parameters:    Size  Location     Type
  4567 ;;  a               1    wreg     unsigned char 
  4568 ;; Auto vars:     Size  Location     Type
  4569 ;;  a               1    2[COMMON] unsigned char 
  4570 ;; Return value:  Size  Location     Type
  4571 ;;                  1    wreg      void 
  4572 ;; Registers used:
  4573 ;;		wreg
  4574 ;; Tracked objects:
  4575 ;;		On entry : 0/0
  4576 ;;		On exit  : 0/0
  4577 ;;		Unchanged: 0/0
  4578 ;; Data sizes:     COMMON   BANK0   BANK1   BANK3   BANK2
  4579 ;;      Params:         0       0       0       0       0
  4580 ;;      Locals:         1       0       0       0       0
  4581 ;;      Temps:          2       0       0       0       0
  4582 ;;      Totals:         3       0       0       0       0
  4583 ;;Total ram usage:        3 bytes
  4584 ;; Hardware stack levels used:    1
  4585 ;; This function calls:
  4586 ;;		Nothing
  4587 ;; This function is called by:
  4588 ;;		_LCD_SET_CURSOR
  4589 ;;		_LCD_INIT
  4590 ;;		_LCD_CLR
  4591 ;;		_LCD_SHIFT_RIGHT
  4592 ;;		_LCD_SHIFT_LEFT
  4593 ;; This function uses a non-reentrant model
  4594 ;;
  4595                           
  4596                           
  4597                           ;psect for function _LCD_CMD
  4598  0D67                     _LCD_CMD:	
  4599                           
  4600                           ;incstack = 0
  4601                           ; Regs used in _LCD_CMD: [wreg]
  4602                           ;LCD_CMD@a stored from wreg
  4603  0D67  00F2               	movwf	LCD_CMD@a
  4604  0D68                     l1453:	
  4605                           
  4606                           ;../Digital2_LabLCD/LCD_8bits_lib.c: 17:     PORTDbits.RD5 = 0;
  4607  0D68  1283               	bcf	3,5	;RP0=0, select bank0
  4608  0D69  1303               	bcf	3,6	;RP1=0, select bank0
  4609  0D6A  1288               	bcf	8,5	;volatile
  4610  0D6B                     l1455:	
  4611                           
  4612                           ;../Digital2_LabLCD/LCD_8bits_lib.c: 18:     PORTB = a;
  4613  0D6B  0872               	movf	LCD_CMD@a,w
  4614  0D6C  0086               	movwf	6	;volatile
  4615  0D6D                     l1457:	
  4616                           
  4617                           ;../Digital2_LabLCD/LCD_8bits_lib.c: 19:     PORTDbits.RD7 = 1;
  4618  0D6D  1788               	bsf	8,7	;volatile
  4619  0D6E                     l1459:	
  4620                           
  4621                           ;../Digital2_LabLCD/LCD_8bits_lib.c: 20:     _delay((unsigned long)((5)*(4000000/4000000
      +                          .0)));
  4622  0D6E  2D6F               	nop2	;2 cycle nop
  4623  0D6F  2D70               	nop2	;2 cycle nop
  4624  0D70  0000               	nop
  4625  0D71                     l1461:	
  4626                           
  4627                           ;../Digital2_LabLCD/LCD_8bits_lib.c: 21:     PORTDbits.RD7 = 0;
  4628  0D71  1283               	bcf	3,5	;RP0=0, select bank0
  4629  0D72  1303               	bcf	3,6	;RP1=0, select bank0
  4630  0D73  1388               	bcf	8,7	;volatile
  4631                           
  4632                           ;../Digital2_LabLCD/LCD_8bits_lib.c: 22:     _delay((unsigned long)((5)*(4000000/4000.0)
      +                          ));
  4633  0D74  3007               	movlw	7
  4634  0D75  00F1               	movwf	??_LCD_CMD+1
  4635  0D76  307D               	movlw	125
  4636  0D77  00F0               	movwf	??_LCD_CMD
  4637  0D78                     u2167:	
  4638  0D78  0BF0               	decfsz	??_LCD_CMD,f
  4639  0D79  2D78               	goto	u2167
  4640  0D7A  0BF1               	decfsz	??_LCD_CMD+1,f
  4641  0D7B  2D78               	goto	u2167
  4642  0D7C                     l129:	
  4643  0D7C  0008               	return
  4644  0D7D                     __end_of_LCD_CMD:	
  4645                           
  4646                           	psect	text21
  4647  0D5A                     __ptext21:	
  4648 ;; *************** function _Init_Port *****************
  4649 ;; Defined at:
  4650 ;;		line 121 in file "Main_master.c"
  4651 ;; Parameters:    Size  Location     Type
  4652 ;;		None
  4653 ;; Auto vars:     Size  Location     Type
  4654 ;;		None
  4655 ;; Return value:  Size  Location     Type
  4656 ;;                  1    wreg      void 
  4657 ;; Registers used:
  4658 ;;		status,2
  4659 ;; Tracked objects:
  4660 ;;		On entry : 0/0
  4661 ;;		On exit  : 0/0
  4662 ;;		Unchanged: 0/0
  4663 ;; Data sizes:     COMMON   BANK0   BANK1   BANK3   BANK2
  4664 ;;      Params:         0       0       0       0       0
  4665 ;;      Locals:         0       0       0       0       0
  4666 ;;      Temps:          0       0       0       0       0
  4667 ;;      Totals:         0       0       0       0       0
  4668 ;;Total ram usage:        0 bytes
  4669 ;; Hardware stack levels used:    1
  4670 ;; This function calls:
  4671 ;;		Nothing
  4672 ;; This function is called by:
  4673 ;;		_main
  4674 ;; This function uses a non-reentrant model
  4675 ;;
  4676                           
  4677                           
  4678                           ;psect for function _Init_Port
  4679  0D5A                     _Init_Port:	
  4680  0D5A                     l1771:	
  4681                           ;incstack = 0
  4682                           ; Regs used in _Init_Port: [status,2]
  4683                           
  4684                           
  4685                           ;Main_master.c: 122:     ANSEL = 0;
  4686  0D5A  1683               	bsf	3,5	;RP0=1, select bank3
  4687  0D5B  1703               	bsf	3,6	;RP1=1, select bank3
  4688  0D5C  0188               	clrf	8	;volatile
  4689                           
  4690                           ;Main_master.c: 123:     ANSELH = 0;
  4691  0D5D  0189               	clrf	9	;volatile
  4692                           
  4693                           ;Main_master.c: 124:     TRISB = 0;
  4694  0D5E  1683               	bsf	3,5	;RP0=1, select bank1
  4695  0D5F  1303               	bcf	3,6	;RP1=0, select bank1
  4696  0D60  0186               	clrf	6	;volatile
  4697                           
  4698                           ;Main_master.c: 125:     TRISD = 0;
  4699  0D61  0188               	clrf	8	;volatile
  4700                           
  4701                           ;Main_master.c: 126:     PORTB = 0;
  4702  0D62  1283               	bcf	3,5	;RP0=0, select bank0
  4703  0D63  1303               	bcf	3,6	;RP1=0, select bank0
  4704  0D64  0186               	clrf	6	;volatile
  4705                           
  4706                           ;Main_master.c: 127:     PORTD = 0;
  4707  0D65  0188               	clrf	8	;volatile
  4708  0D66                     l105:	
  4709  0D66  0008               	return
  4710  0D67                     __end_of_Init_Port:	
  4711                           
  4712                           	psect	text22
  4713  0E94                     __ptext22:	
  4714 ;; *************** function _Init_I2C_Master *****************
  4715 ;; Defined at:
  4716 ;;		line 13 in file "I2C.c"
  4717 ;; Parameters:    Size  Location     Type
  4718 ;;  b               4    0[BANK0 ] const unsigned long 
  4719 ;; Auto vars:     Size  Location     Type
  4720 ;;		None
  4721 ;; Return value:  Size  Location     Type
  4722 ;;                  1    wreg      void 
  4723 ;; Registers used:
  4724 ;;		wreg, status,2, status,0, pclath, cstack
  4725 ;; Tracked objects:
  4726 ;;		On entry : 0/0
  4727 ;;		On exit  : 0/0
  4728 ;;		Unchanged: 0/0
  4729 ;; Data sizes:     COMMON   BANK0   BANK1   BANK3   BANK2
  4730 ;;      Params:         0       4       0       0       0
  4731 ;;      Locals:         0       0       0       0       0
  4732 ;;      Temps:          0       4       0       0       0
  4733 ;;      Totals:         0       8       0       0       0
  4734 ;;Total ram usage:        8 bytes
  4735 ;; Hardware stack levels used:    1
  4736 ;; Hardware stack levels required when called:    1
  4737 ;; This function calls:
  4738 ;;		___lldiv
  4739 ;; This function is called by:
  4740 ;;		_main
  4741 ;; This function uses a non-reentrant model
  4742 ;;
  4743                           
  4744                           
  4745                           ;psect for function _Init_I2C_Master
  4746  0E94                     _Init_I2C_Master:	
  4747  0E94                     l1773:	
  4748                           ;incstack = 0
  4749                           ; Regs used in _Init_I2C_Master: [wreg+status,2+status,0+pclath+cstack]
  4750                           
  4751                           
  4752                           ;I2C.c: 14:     SSPCONbits.SSPM0 = 0;
  4753  0E94  1283               	bcf	3,5	;RP0=0, select bank0
  4754  0E95  1303               	bcf	3,6	;RP1=0, select bank0
  4755  0E96  1014               	bcf	20,0	;volatile
  4756                           
  4757                           ;I2C.c: 15:     SSPCONbits.SSPM1 = 0;
  4758  0E97  1094               	bcf	20,1	;volatile
  4759                           
  4760                           ;I2C.c: 16:     SSPCONbits.SSPM2 = 0;
  4761  0E98  1114               	bcf	20,2	;volatile
  4762                           
  4763                           ;I2C.c: 17:     SSPCONbits.SSPM3 = 1;
  4764  0E99  1594               	bsf	20,3	;volatile
  4765                           
  4766                           ;I2C.c: 19:     SSPCONbits.CKP = 0;
  4767  0E9A  1214               	bcf	20,4	;volatile
  4768                           
  4769                           ;I2C.c: 20:     SSPCONbits.SSPEN = 1;
  4770  0E9B  1694               	bsf	20,5	;volatile
  4771  0E9C                     l1775:	
  4772                           
  4773                           ;I2C.c: 21:     SSPCON2 = 0;
  4774  0E9C  1683               	bsf	3,5	;RP0=1, select bank1
  4775  0E9D  1303               	bcf	3,6	;RP1=0, select bank1
  4776  0E9E  0191               	clrf	17	;volatile
  4777  0E9F                     l1777:	
  4778                           
  4779                           ;I2C.c: 22:     SSPADD = (4000000/(4*b)) - 1;
  4780  0E9F  1283               	bcf	3,5	;RP0=0, select bank0
  4781  0EA0  1303               	bcf	3,6	;RP1=0, select bank0
  4782  0EA1  0820               	movf	Init_I2C_Master@b,w
  4783  0EA2  00A4               	movwf	??_Init_I2C_Master
  4784  0EA3  0821               	movf	Init_I2C_Master@b+1,w
  4785  0EA4  00A5               	movwf	??_Init_I2C_Master+1
  4786  0EA5  0822               	movf	Init_I2C_Master@b+2,w
  4787  0EA6  00A6               	movwf	??_Init_I2C_Master+2
  4788  0EA7  0823               	movf	Init_I2C_Master@b+3,w
  4789  0EA8  00A7               	movwf	??_Init_I2C_Master+3
  4790  0EA9  3002               	movlw	2
  4791  0EAA                     u1885:	
  4792  0EAA  1003               	clrc
  4793  0EAB  0DA4               	rlf	??_Init_I2C_Master,f
  4794  0EAC  0DA5               	rlf	??_Init_I2C_Master+1,f
  4795  0EAD  0DA6               	rlf	??_Init_I2C_Master+2,f
  4796  0EAE  0DA7               	rlf	??_Init_I2C_Master+3,f
  4797  0EAF                     u1880:	
  4798  0EAF  3EFF               	addlw	-1
  4799  0EB0  1D03               	skipz
  4800  0EB1  2EAA               	goto	u1885
  4801  0EB2  0827               	movf	??_Init_I2C_Master+3,w
  4802  0EB3  00F3               	movwf	___lldiv@divisor+3
  4803  0EB4  0826               	movf	??_Init_I2C_Master+2,w
  4804  0EB5  00F2               	movwf	___lldiv@divisor+2
  4805  0EB6  0825               	movf	??_Init_I2C_Master+1,w
  4806  0EB7  00F1               	movwf	___lldiv@divisor+1
  4807  0EB8  0824               	movf	??_Init_I2C_Master,w
  4808  0EB9  00F0               	movwf	___lldiv@divisor
  4809  0EBA  3000               	movlw	0
  4810  0EBB  00F7               	movwf	___lldiv@dividend+3
  4811  0EBC  303D               	movlw	61
  4812  0EBD  00F6               	movwf	___lldiv@dividend+2
  4813  0EBE  3009               	movlw	9
  4814  0EBF  00F5               	movwf	___lldiv@dividend+1
  4815  0EC0  3000               	movlw	0
  4816  0EC1  00F4               	movwf	___lldiv@dividend
  4817  0EC2  120A  118A  2023  120A  158A  	fcall	___lldiv
  4818  0EC7  0870               	movf	?___lldiv,w
  4819  0EC8  3EFF               	addlw	255
  4820  0EC9  1683               	bsf	3,5	;RP0=1, select bank1
  4821  0ECA  1303               	bcf	3,6	;RP1=0, select bank1
  4822  0ECB  0093               	movwf	19	;volatile
  4823  0ECC                     l1779:	
  4824                           
  4825                           ;I2C.c: 23:     SSPSTAT = 0;
  4826  0ECC  0194               	clrf	20	;volatile
  4827  0ECD                     l1781:	
  4828                           
  4829                           ;I2C.c: 24:     TRISCbits.TRISC3 = 1;
  4830  0ECD  1587               	bsf	7,3	;volatile
  4831  0ECE                     l1783:	
  4832                           
  4833                           ;I2C.c: 25:     TRISCbits.TRISC4 = 1;
  4834  0ECE  1607               	bsf	7,4	;volatile
  4835  0ECF                     l183:	
  4836  0ECF  0008               	return
  4837  0ED0                     __end_of_Init_I2C_Master:	
  4838                           
  4839                           	psect	text23
  4840  0023                     __ptext23:	
  4841 ;; *************** function ___lldiv *****************
  4842 ;; Defined at:
  4843 ;;		line 5 in file "C:\Program Files (x86)\Microchip\xc8\v2.10\pic\sources\c90\common\__lldiv.c"
  4844 ;; Parameters:    Size  Location     Type
  4845 ;;  divisor         4    0[COMMON] unsigned long 
  4846 ;;  dividend        4    4[COMMON] unsigned long 
  4847 ;; Auto vars:     Size  Location     Type
  4848 ;;  quotient        4    9[COMMON] unsigned long 
  4849 ;;  counter         1   13[COMMON] unsigned char 
  4850 ;; Return value:  Size  Location     Type
  4851 ;;                  4    0[COMMON] unsigned long 
  4852 ;; Registers used:
  4853 ;;		wreg, status,2, status,0
  4854 ;; Tracked objects:
  4855 ;;		On entry : 0/0
  4856 ;;		On exit  : 0/0
  4857 ;;		Unchanged: 0/0
  4858 ;; Data sizes:     COMMON   BANK0   BANK1   BANK3   BANK2
  4859 ;;      Params:         8       0       0       0       0
  4860 ;;      Locals:         5       0       0       0       0
  4861 ;;      Temps:          1       0       0       0       0
  4862 ;;      Totals:        14       0       0       0       0
  4863 ;;Total ram usage:       14 bytes
  4864 ;; Hardware stack levels used:    1
  4865 ;; This function calls:
  4866 ;;		Nothing
  4867 ;; This function is called by:
  4868 ;;		_Init_I2C_Master
  4869 ;; This function uses a non-reentrant model
  4870 ;;
  4871                           
  4872                           
  4873                           ;psect for function ___lldiv
  4874  0023                     ___lldiv:	
  4875  0023                     l1467:	
  4876                           ;incstack = 0
  4877                           ; Regs used in ___lldiv: [wreg+status,2+status,0]
  4878                           
  4879  0023  3000               	movlw	0
  4880  0024  00FC               	movwf	___lldiv@quotient+3
  4881  0025  3000               	movlw	0
  4882  0026  00FB               	movwf	___lldiv@quotient+2
  4883  0027  3000               	movlw	0
  4884  0028  00FA               	movwf	___lldiv@quotient+1
  4885  0029  3000               	movlw	0
  4886  002A  00F9               	movwf	___lldiv@quotient
  4887  002B  0873               	movf	___lldiv@divisor+3,w
  4888  002C  0472               	iorwf	___lldiv@divisor+2,w
  4889  002D  0471               	iorwf	___lldiv@divisor+1,w
  4890  002E  0470               	iorwf	___lldiv@divisor,w
  4891  002F  1903               	skipnz
  4892  0030  2832               	goto	u1091
  4893  0031  2833               	goto	u1090
  4894  0032                     u1091:	
  4895  0032  2880               	goto	l1487
  4896  0033                     u1090:	
  4897  0033                     l1469:	
  4898  0033  01FD               	clrf	___lldiv@counter
  4899  0034  0AFD               	incf	___lldiv@counter,f
  4900  0035  2843               	goto	l1473
  4901  0036                     l1471:	
  4902  0036  3001               	movlw	1
  4903  0037  00F8               	movwf	??___lldiv
  4904  0038                     u1105:	
  4905  0038  1003               	clrc
  4906  0039  0DF0               	rlf	___lldiv@divisor,f
  4907  003A  0DF1               	rlf	___lldiv@divisor+1,f
  4908  003B  0DF2               	rlf	___lldiv@divisor+2,f
  4909  003C  0DF3               	rlf	___lldiv@divisor+3,f
  4910  003D  0BF8               	decfsz	??___lldiv,f
  4911  003E  2838               	goto	u1105
  4912  003F  3001               	movlw	1
  4913  0040  00F8               	movwf	??___lldiv
  4914  0041  0878               	movf	??___lldiv,w
  4915  0042  07FD               	addwf	___lldiv@counter,f
  4916  0043                     l1473:	
  4917  0043  1FF3               	btfss	___lldiv@divisor+3,7
  4918  0044  2846               	goto	u1111
  4919  0045  2847               	goto	u1110
  4920  0046                     u1111:	
  4921  0046  2836               	goto	l1471
  4922  0047                     u1110:	
  4923  0047                     l1475:	
  4924  0047  3001               	movlw	1
  4925  0048  00F8               	movwf	??___lldiv
  4926  0049                     u1125:	
  4927  0049  1003               	clrc
  4928  004A  0DF9               	rlf	___lldiv@quotient,f
  4929  004B  0DFA               	rlf	___lldiv@quotient+1,f
  4930  004C  0DFB               	rlf	___lldiv@quotient+2,f
  4931  004D  0DFC               	rlf	___lldiv@quotient+3,f
  4932  004E  0BF8               	decfsz	??___lldiv,f
  4933  004F  2849               	goto	u1125
  4934  0050                     l1477:	
  4935  0050  0873               	movf	___lldiv@divisor+3,w
  4936  0051  0277               	subwf	___lldiv@dividend+3,w
  4937  0052  1D03               	skipz
  4938  0053  285E               	goto	u1135
  4939  0054  0872               	movf	___lldiv@divisor+2,w
  4940  0055  0276               	subwf	___lldiv@dividend+2,w
  4941  0056  1D03               	skipz
  4942  0057  285E               	goto	u1135
  4943  0058  0871               	movf	___lldiv@divisor+1,w
  4944  0059  0275               	subwf	___lldiv@dividend+1,w
  4945  005A  1D03               	skipz
  4946  005B  285E               	goto	u1135
  4947  005C  0870               	movf	___lldiv@divisor,w
  4948  005D  0274               	subwf	___lldiv@dividend,w
  4949  005E                     u1135:	
  4950  005E  1C03               	skipc
  4951  005F  2861               	goto	u1131
  4952  0060  2862               	goto	u1130
  4953  0061                     u1131:	
  4954  0061  2871               	goto	l1483
  4955  0062                     u1130:	
  4956  0062                     l1479:	
  4957  0062  0870               	movf	___lldiv@divisor,w
  4958  0063  02F4               	subwf	___lldiv@dividend,f
  4959  0064  0871               	movf	___lldiv@divisor+1,w
  4960  0065  1C03               	skipc
  4961  0066  0F71               	incfsz	___lldiv@divisor+1,w
  4962  0067  02F5               	subwf	___lldiv@dividend+1,f
  4963  0068  0872               	movf	___lldiv@divisor+2,w
  4964  0069  1C03               	skipc
  4965  006A  0F72               	incfsz	___lldiv@divisor+2,w
  4966  006B  02F6               	subwf	___lldiv@dividend+2,f
  4967  006C  0873               	movf	___lldiv@divisor+3,w
  4968  006D  1C03               	skipc
  4969  006E  0F73               	incfsz	___lldiv@divisor+3,w
  4970  006F  02F7               	subwf	___lldiv@dividend+3,f
  4971  0070                     l1481:	
  4972  0070  1479               	bsf	___lldiv@quotient,0
  4973  0071                     l1483:	
  4974  0071  3001               	movlw	1
  4975  0072                     u1145:	
  4976  0072  1003               	clrc
  4977  0073  0CF3               	rrf	___lldiv@divisor+3,f
  4978  0074  0CF2               	rrf	___lldiv@divisor+2,f
  4979  0075  0CF1               	rrf	___lldiv@divisor+1,f
  4980  0076  0CF0               	rrf	___lldiv@divisor,f
  4981  0077  3EFF               	addlw	-1
  4982  0078  1D03               	skipz
  4983  0079  2872               	goto	u1145
  4984  007A                     l1485:	
  4985  007A  3001               	movlw	1
  4986  007B  02FD               	subwf	___lldiv@counter,f
  4987  007C  1D03               	btfss	3,2
  4988  007D  287F               	goto	u1151
  4989  007E  2880               	goto	u1150
  4990  007F                     u1151:	
  4991  007F  2847               	goto	l1475
  4992  0080                     u1150:	
  4993  0080                     l1487:	
  4994  0080  087C               	movf	___lldiv@quotient+3,w
  4995  0081  00F3               	movwf	?___lldiv+3
  4996  0082  087B               	movf	___lldiv@quotient+2,w
  4997  0083  00F2               	movwf	?___lldiv+2
  4998  0084  087A               	movf	___lldiv@quotient+1,w
  4999  0085  00F1               	movwf	?___lldiv+1
  5000  0086  0879               	movf	___lldiv@quotient,w
  5001  0087  00F0               	movwf	?___lldiv
  5002  0088                     l331:	
  5003  0088  0008               	return
  5004  0089                     __end_of___lldiv:	
  5005                           
  5006                           	psect	text24
  5007  0E2C                     __ptext24:	
  5008 ;; *************** function _I2C_Master_Read *****************
  5009 ;; Defined at:
  5010 ;;		line 66 in file "I2C.c"
  5011 ;; Parameters:    Size  Location     Type
  5012 ;;  a               2    0[COMMON] unsigned short 
  5013 ;; Auto vars:     Size  Location     Type
  5014 ;;  temporal        2    4[COMMON] unsigned short 
  5015 ;; Return value:  Size  Location     Type
  5016 ;;                  2    0[COMMON] unsigned short 
  5017 ;; Registers used:
  5018 ;;		wreg, status,2, status,0, pclath, cstack
  5019 ;; Tracked objects:
  5020 ;;		On entry : 0/0
  5021 ;;		On exit  : 0/0
  5022 ;;		Unchanged: 0/0
  5023 ;; Data sizes:     COMMON   BANK0   BANK1   BANK3   BANK2
  5024 ;;      Params:         2       0       0       0       0
  5025 ;;      Locals:         2       0       0       0       0
  5026 ;;      Temps:          2       0       0       0       0
  5027 ;;      Totals:         6       0       0       0       0
  5028 ;;Total ram usage:        6 bytes
  5029 ;; Hardware stack levels used:    1
  5030 ;; Hardware stack levels required when called:    1
  5031 ;; This function calls:
  5032 ;;		_Wait_I2C_Master
  5033 ;; This function is called by:
  5034 ;;		_main
  5035 ;; This function uses a non-reentrant model
  5036 ;;
  5037                           
  5038                           
  5039                           ;psect for function _I2C_Master_Read
  5040  0E2C                     _I2C_Master_Read:	
  5041  0E2C                     l1841:	
  5042                           ;incstack = 0
  5043                           ; Regs used in _I2C_Master_Read: [wreg+status,2+status,0+pclath+cstack]
  5044                           
  5045                           
  5046                           ;I2C.c: 67:     unsigned short temporal;;I2C.c: 68:     Wait_I2C_Master();
  5047  0E2C  120A  158A  254D  120A  158A  	fcall	_Wait_I2C_Master
  5048  0E31                     l1843:	
  5049                           
  5050                           ;I2C.c: 69:     SSPCON2bits.RCEN = 1;
  5051  0E31  1683               	bsf	3,5	;RP0=1, select bank1
  5052  0E32  1303               	bcf	3,6	;RP1=0, select bank1
  5053  0E33  1591               	bsf	17,3	;volatile
  5054                           
  5055                           ;I2C.c: 70:     Wait_I2C_Master();
  5056  0E34  120A  158A  254D  120A  158A  	fcall	_Wait_I2C_Master
  5057  0E39                     l1845:	
  5058                           
  5059                           ;I2C.c: 71:     temporal = SSPBUF;
  5060  0E39  1283               	bcf	3,5	;RP0=0, select bank0
  5061  0E3A  1303               	bcf	3,6	;RP1=0, select bank0
  5062  0E3B  0813               	movf	19,w	;volatile
  5063  0E3C  00F2               	movwf	??_I2C_Master_Read
  5064  0E3D  01F3               	clrf	??_I2C_Master_Read+1
  5065  0E3E  0872               	movf	??_I2C_Master_Read,w
  5066  0E3F  00F4               	movwf	I2C_Master_Read@temporal
  5067  0E40  0873               	movf	??_I2C_Master_Read+1,w
  5068  0E41  00F5               	movwf	I2C_Master_Read@temporal+1
  5069  0E42                     l1847:	
  5070                           
  5071                           ;I2C.c: 72:     Wait_I2C_Master();
  5072  0E42  120A  158A  254D  120A  158A  	fcall	_Wait_I2C_Master
  5073  0E47                     l1849:	
  5074                           
  5075                           ;I2C.c: 74:     if (a == 1){
  5076  0E47  0370               	decf	I2C_Master_Read@a,w
  5077  0E48  0471               	iorwf	I2C_Master_Read@a+1,w
  5078  0E49  1D03               	btfss	3,2
  5079  0E4A  2E4C               	goto	u1921
  5080  0E4B  2E4D               	goto	u1920
  5081  0E4C                     u1921:	
  5082  0E4C  2E51               	goto	l207
  5083  0E4D                     u1920:	
  5084  0E4D                     l1851:	
  5085                           
  5086                           ;I2C.c: 75:         SSPCON2bits.ACKDT = 0;
  5087  0E4D  1683               	bsf	3,5	;RP0=1, select bank1
  5088  0E4E  1303               	bcf	3,6	;RP1=0, select bank1
  5089  0E4F  1291               	bcf	17,5	;volatile
  5090                           
  5091                           ;I2C.c: 76:     }else{
  5092  0E50  2E54               	goto	l208
  5093  0E51                     l207:	
  5094                           
  5095                           ;I2C.c: 77:         SSPCON2bits.ACKDT = 1;
  5096  0E51  1683               	bsf	3,5	;RP0=1, select bank1
  5097  0E52  1303               	bcf	3,6	;RP1=0, select bank1
  5098  0E53  1691               	bsf	17,5	;volatile
  5099  0E54                     l208:	
  5100                           ;I2C.c: 78:     }
  5101                           
  5102                           
  5103                           ;I2C.c: 79:     SSPCON2bits.ACKEN = 1;
  5104  0E54  1611               	bsf	17,4	;volatile
  5105  0E55                     l1853:	
  5106                           
  5107                           ;I2C.c: 80:     return temporal;
  5108  0E55  0875               	movf	I2C_Master_Read@temporal+1,w
  5109  0E56  00F1               	movwf	?_I2C_Master_Read+1
  5110  0E57  0874               	movf	I2C_Master_Read@temporal,w
  5111  0E58  00F0               	movwf	?_I2C_Master_Read
  5112  0E59                     l209:	
  5113  0E59  0008               	return
  5114  0E5A                     __end_of_I2C_Master_Read:	
  5115                           
  5116                           	psect	text25
  5117  0D4D                     __ptext25:	
  5118 ;; *************** function _Wait_I2C_Master *****************
  5119 ;; Defined at:
  5120 ;;		line 42 in file "I2C.c"
  5121 ;; Parameters:    Size  Location     Type
  5122 ;;		None
  5123 ;; Auto vars:     Size  Location     Type
  5124 ;;		None
  5125 ;; Return value:  Size  Location     Type
  5126 ;;                  1    wreg      void 
  5127 ;; Registers used:
  5128 ;;		wreg, status,2
  5129 ;; Tracked objects:
  5130 ;;		On entry : 0/0
  5131 ;;		On exit  : 0/0
  5132 ;;		Unchanged: 0/0
  5133 ;; Data sizes:     COMMON   BANK0   BANK1   BANK3   BANK2
  5134 ;;      Params:         0       0       0       0       0
  5135 ;;      Locals:         0       0       0       0       0
  5136 ;;      Temps:          0       0       0       0       0
  5137 ;;      Totals:         0       0       0       0       0
  5138 ;;Total ram usage:        0 bytes
  5139 ;; Hardware stack levels used:    1
  5140 ;; This function calls:
  5141 ;;		Nothing
  5142 ;; This function is called by:
  5143 ;;		_Start_I2C_Master
  5144 ;;		_Stop_I2C_Master
  5145 ;;		_Write_I2C_Master
  5146 ;;		_I2C_Master_Read
  5147 ;;		_Restart_I2C
  5148 ;; This function uses a non-reentrant model
  5149 ;;
  5150                           
  5151                           
  5152                           ;psect for function _Wait_I2C_Master
  5153  0D4D                     _Wait_I2C_Master:	
  5154  0D4D                     l1463:	
  5155                           ;incstack = 0
  5156                           ; Regs used in _Wait_I2C_Master: [wreg+status,2]
  5157                           
  5158  0D4D                     l189:	
  5159                           ;I2C.c: 43:     while ((SSPSTATbits.R_nW == 1) || (SSPCON2 & 0x1F));
  5160                           
  5161  0D4D  1683               	bsf	3,5	;RP0=1, select bank1
  5162  0D4E  1303               	bcf	3,6	;RP1=0, select bank1
  5163  0D4F  1914               	btfsc	20,2	;volatile
  5164  0D50  2D52               	goto	u1071
  5165  0D51  2D53               	goto	u1070
  5166  0D52                     u1071:	
  5167  0D52  2D4D               	goto	l189
  5168  0D53                     u1070:	
  5169  0D53                     l1465:	
  5170  0D53  0811               	movf	17,w	;volatile
  5171  0D54  391F               	andlw	31
  5172  0D55  1D03               	btfss	3,2
  5173  0D56  2D58               	goto	u1081
  5174  0D57  2D59               	goto	u1080
  5175  0D58                     u1081:	
  5176  0D58  2D4D               	goto	l189
  5177  0D59                     u1080:	
  5178  0D59                     l192:	
  5179  0D59  0008               	return
  5180  0D5A                     __end_of_Wait_I2C_Master:	
  5181  007E                     btemp	set	126	;btemp
  5182  007E                     wtemp0	set	126


Data Sizes:
    Strings     19
    Constant    0
    Data        0
    BSS         33
    Persistent  0
    Stack       0

Auto Spaces:
    Space          Size  Autos    Used
    COMMON           14     14      14
    BANK0            80     47      80
    BANK1            80      0       0
    BANK3            96      0       0
    BANK2            96      0       0

Pointer List with Targets:

    LCD_WRITE_STRING@a	PTR unsigned char  size(1) Largest target is 17
		 -> STR_3(CODE[2]), STR_2(CODE[2]), STR_1(CODE[17]), 


Critical Paths under _main in COMMON

    _main->___xxtofl
    _obtener_unidades->___awmod
    ___flmul->___xxtofl
    _obtener_decenas->___awmod
    ___awmod->___awdiv
    _LCD_WRITE_STRING->_LCD_WRITE_CHAR
    _LCD_SET_CURSOR->_LCD_CMD
    _LCD_INIT->_LCD_CMD
    _Init_I2C_Master->___lldiv

Critical Paths under _main in BANK0

    _main->_obtener_decimal_1
    _main->_obtener_decimal_2
    _obtener_unidades->___awmod
    _obtener_decimal_2->___fltol
    _obtener_decimal_1->___fltol
    ___fltol->___flmul
    _obtener_decenas->___awmod

Critical Paths under _main in BANK1

    None.

Critical Paths under _main in BANK3

    None.

Critical Paths under _main in BANK2

    None.

Call Graph Tables:

 ---------------------------------------------------------------------------------
 (Depth) Function   	        Calls       Base Space   Used Autos Params    Refs
 ---------------------------------------------------------------------------------
 (0) _main                                                 4     4      0   15495
                                             43 BANK0      4     4      0
                    _I2C_Master_Read
                    _Init_I2C_Master
                          _Init_Port
                           _LCD_INIT
                     _LCD_SET_CURSOR
                     _LCD_WRITE_CHAR
                   _LCD_WRITE_STRING
                   _Start_I2C_Master
                    _Stop_I2C_Master
                   _Write_I2C_Master
                            ___flmul
                            ___fltol
                           ___xxtofl
                  _convertir_a_ascii
                    _obtener_decenas
                  _obtener_decimal_1
                  _obtener_decimal_2
                   _obtener_unidades
 ---------------------------------------------------------------------------------
 (1) _obtener_unidades                                     5     5      0     645
                                              2 BANK0      5     5      0
                            ___awmod
 ---------------------------------------------------------------------------------
 (1) _obtener_decimal_2                                    6     2      4    4089
                                             37 BANK0      6     2      4
                            ___flmul
                            ___fltol
                            ___lwmod
 ---------------------------------------------------------------------------------
 (1) _obtener_decimal_1                                    6     2      4    4089
                                             37 BANK0      6     2      4
                            ___flmul
                            ___fltol
                            ___lwmod
 ---------------------------------------------------------------------------------
 (2) ___lwmod                                              6     2      4     463
                                              0 COMMON     6     2      4
 ---------------------------------------------------------------------------------
 (2) ___fltol                                             11     7      4     533
                                             26 BANK0     11     7      4
                            ___flmul (ARG)
 ---------------------------------------------------------------------------------
 (2) ___flmul                                             26    18      8    2873
                                              0 BANK0     26    18      8
                          __Umul8_16
                           ___xxtofl (ARG)
 ---------------------------------------------------------------------------------
 (3) __Umul8_16                                            9     7      2     799
                                              0 COMMON     9     7      2
 ---------------------------------------------------------------------------------
 (1) _obtener_decenas                                      5     5      0    1097
                                              2 BANK0      5     5      0
                            ___awdiv
                            ___awmod
 ---------------------------------------------------------------------------------
 (2) ___awmod                                              7     3      4     600
                                              9 COMMON     5     1      4
                                              0 BANK0      2     2      0
                            ___awdiv (ARG)
 ---------------------------------------------------------------------------------
 (2) ___awdiv                                              9     5      4     452
                                              0 COMMON     9     5      4
 ---------------------------------------------------------------------------------
 (1) _convertir_a_ascii                                    3     3      0      45
                                              0 COMMON     3     3      0
 ---------------------------------------------------------------------------------
 (1) ___xxtofl                                            14    10      4     474
                                              0 COMMON    14    10      4
 ---------------------------------------------------------------------------------
 (1) _Write_I2C_Master                                     2     0      2     250
                                              0 COMMON     2     0      2
                    _Wait_I2C_Master
 ---------------------------------------------------------------------------------
 (1) _Stop_I2C_Master                                      0     0      0       0
                    _Wait_I2C_Master
 ---------------------------------------------------------------------------------
 (1) _Start_I2C_Master                                     0     0      0       0
                    _Wait_I2C_Master
 ---------------------------------------------------------------------------------
 (1) _LCD_WRITE_STRING                                     3     3      0     211
                                              3 COMMON     3     3      0
                     _LCD_WRITE_CHAR
 ---------------------------------------------------------------------------------
 (2) _LCD_WRITE_CHAR                                       3     3      0      22
                                              0 COMMON     3     3      0
 ---------------------------------------------------------------------------------
 (1) _LCD_SET_CURSOR                                       4     3      1     460
                                              3 COMMON     4     3      1
                            _LCD_CMD
 ---------------------------------------------------------------------------------
 (1) _LCD_INIT                                             2     2      0      22
                                              3 COMMON     2     2      0
                            _LCD_CMD
 ---------------------------------------------------------------------------------
 (2) _LCD_CMD                                              3     3      0      22
                                              0 COMMON     3     3      0
 ---------------------------------------------------------------------------------
 (1) _Init_Port                                            0     0      0       0
 ---------------------------------------------------------------------------------
 (1) _Init_I2C_Master                                      8     4      4     412
                                              0 BANK0      8     4      4
                            ___lldiv
 ---------------------------------------------------------------------------------
 (2) ___lldiv                                             14     6      8     314
                                              0 COMMON    14     6      8
 ---------------------------------------------------------------------------------
 (1) _I2C_Master_Read                                      6     4      2     273
                                              0 COMMON     6     4      2
                    _Wait_I2C_Master
 ---------------------------------------------------------------------------------
 (2) _Wait_I2C_Master                                      0     0      0       0
 ---------------------------------------------------------------------------------
 Estimated maximum stack depth 3
 ---------------------------------------------------------------------------------

 Call Graph Graphs:

 _main (ROOT)
   _I2C_Master_Read
     _Wait_I2C_Master
   _Init_I2C_Master
     ___lldiv
   _Init_Port
   _LCD_INIT
     _LCD_CMD
   _LCD_SET_CURSOR
     _LCD_CMD
   _LCD_WRITE_CHAR
   _LCD_WRITE_STRING
     _LCD_WRITE_CHAR
   _Start_I2C_Master
     _Wait_I2C_Master
   _Stop_I2C_Master
     _Wait_I2C_Master
   _Write_I2C_Master
     _Wait_I2C_Master
   ___flmul
     __Umul8_16
     ___xxtofl (ARG)
   ___fltol
     ___flmul (ARG)
       __Umul8_16
       ___xxtofl (ARG)
   ___xxtofl
   _convertir_a_ascii
   _obtener_decenas
     ___awdiv
     ___awmod
       ___awdiv (ARG)
   _obtener_decimal_1
     ___flmul
       __Umul8_16
       ___xxtofl (ARG)
     ___fltol
       ___flmul (ARG)
         __Umul8_16
         ___xxtofl (ARG)
     ___lwmod
   _obtener_decimal_2
     ___flmul
       __Umul8_16
       ___xxtofl (ARG)
     ___fltol
       ___flmul (ARG)
         __Umul8_16
         ___xxtofl (ARG)
     ___lwmod
   _obtener_unidades
     ___awmod
       ___awdiv (ARG)

 Address spaces:
Name               Size   Autos  Total    Cost      Usage
BITCOMMON            E      0       0       0        0.0%
EEDATA             100      0       0       0        0.0%
NULL                 0      0       0       0        0.0%
CODE                 0      0       0       0        0.0%
COMMON               E      E       E       1      100.0%
BITSFR0              0      0       0       1        0.0%
SFR0                 0      0       0       1        0.0%
BITSFR1              0      0       0       2        0.0%
SFR1                 0      0       0       2        0.0%
STACK                0      0       0       2        0.0%
ABS                  0      0      5E       3        0.0%
BITBANK0            50      0       0       4        0.0%
BITSFR3              0      0       0       4        0.0%
SFR3                 0      0       0       4        0.0%
BANK0               50     2F      50       5      100.0%
BITSFR2              0      0       0       5        0.0%
SFR2                 0      0       0       5        0.0%
BITBANK1            50      0       0       6        0.0%
BANK1               50      0       0       7        0.0%
BITBANK3            60      0       0       8        0.0%
BANK3               60      0       0       9        0.0%
BITBANK2            60      0       0      10        0.0%
BANK2               60      0       0      11        0.0%
DATA                 0      0      5E      12        0.0%


Microchip Technology PIC Macro Assembler V2.10 build 88905656 
Symbol Table                                                                                   Thu Feb 27 00:10:52 2020

           ?_LCD_WRITE_CHAR 0070                           _a 0068                           pc 0002  
               __CFG_CP$OFF 0000                 _SSPSTATbits 0094                ___awdiv@sign 0076  
                        fsr 0004         __Umul8_16@word_mpld 0076           ?_LCD_WRITE_STRING 0070  
                       l111 0E2B                         l120 0D28                         l105 0D66  
                       l201 0D42                         l114 0F10                         l204 0D4C  
                       l108 0022                         l141 0FA4                         l117 0F51  
                       l150 0DDC                         l207 0E51                         l208 0E54  
                       l144 0D93                         l209 0E59                         l129 0D7C  
                       l138 0DB7                         l331 0088                         l183 0ECF  
                       l192 0D59                         l195 0D39                         l189 0D4D  
                       l461 0FFF                         l448 00EF                         l481 016B  
                       l722 018E                         l491 016B                         l724 0225  
                       l741 0DF1                         l735 01EF                         l743 0E03  
                       l736 01FB                         l728 01D3                         l488 0156  
                       l577 0E93                         l690 075E                         l684 07F2  
                       l696 07E6                __CFG_CPD$OFF 0000                         _pot 006E  
                       fsr0 0004          ??_LCD_WRITE_STRING 0073                         indf 0000  
              ___awmod@sign 0021                ___flmul@aexp 0032                ___flmul@bexp 0033  
              ___flmul@sign 002D                ___flmul@temp 0038                ___flmul@prod 0034  
           __end_of_LCD_CMD 0D7D                __CFG_LVP$OFF 0000                ___fltol@exp1 0044  
                      l2001 03D5                        l2011 040C                        l2003 03E0  
                      l2021 0440                        l2013 0417                        l2005 03EB  
                      l2031 0472                        l2023 0448                        l2015 0422  
                      l2007 03F6                        l2033 047E                        l2025 0454  
                      l2017 042A                        l2009 0401                        l2035 0486  
                      l2027 0462                        l2019 0438                        l1501 0099  
                      l2029 046A                        l1511 00AD                        l1503 009E  
                      l1431 0DDE                        l1521 00D3                        l1513 00B4  
                      l1505 00A2                        l1441 0DFF                        l1433 0DE0  
                      l1451 0D88                        l1531 00EB                        l1523 00D4  
                      l1515 00B8                        l1507 00A4                        l1435 0DE7  
                      l1603 014B                        l1611 0E60                        l1461 0D71  
                      l1453 0D68                        l1445 0D7E                        l1525 00DB  
                      l1517 00BC                        l1509 00AA                        l1541 0FB1  
                      l1437 0DEB                        l1701 0635                        l1605 015B  
                      l1621 0E7C                        l1613 0E63                        l1463 0D4D  
                      l1471 0036                        l1455 0D6B                        l1447 0D81  
                      l1519 00CD                        l1527 00E1                        l1551 0FC5  
                      l1543 0FB3                        l1535 0FA5                        l1439 0DFA  
                      l1711 06E2                        l1703 0652                        l1631 0492  
                      l1607 0160                        l1623 0E82                        l1615 0E6A  
                      l1465 0D53                        l1481 0070                        l1473 0043  
                      l1457 0D6D                        l1801 0F80                        l1449 0D83  
                      l1529 00E6                        l1561 0FE4                        l1553 0FCC  
                      l1545 0FB7                        l1537 0FA8                        l1721 072E  
                      l1713 070A                        l1705 067F                        l1641 04A9  
                      l1633 0499                        l1625 0E89                        l1617 0E6E  
                      l1609 0E5A                        l1483 0071                        l1475 0047  
                      l1467 0023                        l1459 0D6E                        l1811 0F9E  
                      l1803 0F86                        l1491 0089                        l1563 0FEB  
                      l1555 0FD0                        l1547 0FBC                        l1539 0FAC  
                      l1731 0743                        l1723 072F                        l1715 0713  
                      l1707 068F                        l1651 04C5                        l1643 04AE  
                      l1635 049F                        l1619 0E72                        l1627 0E8F  
                      l1485 007A                        l1477 0050                        l1469 0033  
                      l1805 0F8C                        l1821 0DAC                        l1813 0D95  
                      l1901 0186                        l1493 008A                        l1557 0FD4  
                      l1549 0FC2                        l1565 0FF1                        l1741 0768  
                      l1733 0747                        l1725 0738                        l1717 0721  
                      l1709 06BC                        l1661 04DA                        l1653 04CB  
                      l1645 04B6                        l1637 04A3                        l1581 011B  
                      l1573 00F0                        l1479 0062                        l1487 0080  
                      l1807 0F92                        l1823 0DB1                        l1815 0D9A  
                      l1831 0DCF                        l1911 01B1                        l1903 0196  
                      l1495 008E                        l1567 0FF6                        l1559 0FDE  
                      l1751 07A6                        l1743 0776                        l1735 075B  
                      l1719 072A                        l1727 073E                        l1671 04F6  
                      l1663 04E2                        l1655 04CF                        l1647 04B8  
                      l1639 04A4                        l1583 011C                        l1575 00FD  
                      l1841 0E2C                        l1809 0F98                        l1817 0D9F  
                      l1825 0DB9                        l1833 0D31                        l1921 01E5  
                      l1913 01B8                        l1497 0093                        l1569 0FFB  
                      l1761 07DA                        l1753 07B1                        l1745 077A  
                      l1729 0742                        l1681 0539                        l1665 04E4  
                      l1657 04D0                        l1649 04C0                        l1585 0124  
                      l1851 0E4D                        l1843 0E31                        l1771 0D5A  
                      l1819 0DA6                        l1827 0DBC                        l1835 0D36  
                      l1931 0218                        l1923 01E9                        l1915 01BC  
                      l1907 019F                        l1499 0095                        l1763 07DE  
                      l1755 07C0                        l1747 0793                        l1739 0763  
                      l1691 05C2                        l1683 0555                        l1675 04FF  
                      l1667 04EC                        l1659 04D5                        l1595 0132  
                      l1587 0126                        l1579 0106                        l1853 0E55  
                      l1845 0E39                        l1781 0ECD                        l1773 0E94  
                      l1829 0DC9                        l1837 0D43                        l1933 021C  
                      l1925 01F3                        l1917 01CA                        l1909 01A4  
                      l1765 07DF                        l1757 07CA                        l1749 0799  
                      l1693 05D2                        l1685 0581                        l1677 050F  
                      l1669 04F1                        l1589 012A                        l1597 0144  
                      l1861 000B                        l1941 022B                        l1847 0E42  
                      l1783 0ECE                        l1775 0E9C                        l1791 0F64  
                      l1839 0D48                        l1935 021D                        l1927 01FD  
                      l1919 01DA                        l1767 07EA                        l1759 07CC  
                      l1695 05EF                        l1687 059D                        l1679 051C  
                      l1871 0F0F                        l1863 0021                        l1951 0252  
                      l1943 023A                        l1849 0E47                        l1777 0E9F  
                      l1793 0F6C                        l1785 0F52                        l1857 0D3A  
                      l1929 0213                        l1697 05FF                        l1689 05B9  
                      l1961 027D                        l1953 025B                        l1945 023F  
                      l1779 0ECC                        l1795 0F72                        l1787 0F55  
                      l1859 0D3F                        l1891 0D27                        l1883 0E07  
                      l1699 061C                        l1867 0ED0                        l1875 0F11  
                      l1971 02A8                        l1963 0286                        l1955 0269  
                      l1947 0247                        l1939 0226                        l1797 0F76  
                      l1789 0F5E                        l1885 0E2A                        l1869 0EFC  
                      l1877 0F3D                        l1981 0304                        l1973 02B1  
                      l1965 0294                        l1957 026E                        l1949 024D  
                      l1799 0F7C                        l1895 016D                        l1879 0F50  
                      l1991 0390                        l1983 0338                        l1975 02BF  
                      l1967 0299                        l1959 0278                        l1897 0172  
                      l1889 0D22                        l1993 03A2                        l1985 0352  
                      l1977 02C4                        l1969 02A3                        l1899 0176  
                      l1995 03B4                        l1987 0364                        l1979 02CE  
                      l1997 03BF                        l1989 0376                        l1999 03CA  
                      STR_1 0806                        STR_2 0817                        STR_3 0817  
                      u1110 0047                        u1111 0046                        u1200 00BC  
                      u1040 0DEB                        u1105 0038                        u1201 00BB  
                      u1041 0DEA                        u1130 0062                        u2010 01E9  
                      u1131 0061                        u2011 01E8                        u2020 01EF  
                      u1220 00CD                        u1300 0FD4                        u1060 0DFF  
                      u1125 0049                        u2021 01EE                        u2005 01DE  
                      u1221 00CC                        u1301 0FD3                        u1061 0DFE  
                      u1070 0D53                        u1150 0080                        u2030 01F3  
                      u1310 0FDE                        u1071 0D52                        u1151 007F  
                      u1135 005E                        u2031 01F2                        u1215 00BD  
                      u1311 0FDD                        u1055 0DF2                        u1080 0D59  
                      u2040 0208                        u1240 00E1                        u1160 008E  
                      u1400 0143                        u1081 0D58                        u1145 0072  
                      u1241 00E0                        u1225 00C9                        u1161 008D  
                      u1401 0142                        u1090 0033                        u2050 0218  
                      u1250 00E6                        u1170 0099                        u1330 0FF1  
                      u1410 014A                        u1091 0032                        u2107 0D86  
                      u2051 0217                        u1251 00E5                        u1235 00D5  
                      u1171 0098                        u1331 0FF0                        u1315 0FDA  
                      u1411 0149                        u2060 021C                        u1180 00AA  
                      u1340 0FF6                        u1260 0FAC                        u1500 0E8F  
                      u2117 0D8F                        u2061 021B                        u2045 0203  
                      u1181 00A9                        u1341 0FF5                        u1325 0FE5  
                      u1261 0FAB                        u1501 0E8E                        u1270 0FB7  
                      u1510 04A3                        u1430 015B                        u1350 00FD  
                      u2127 0F59                        u1271 0FB6                        u1511 04A2  
                      u1431 015A                        u1351 00FC                        u1280 0FC2  
                      u1520 04A9                        u1440 0160                        u1360 0114  
                      u2137 0F68                        u1281 0FC1                        u1601 0563  
                      u1521 04A8                        u1441 015F                        u1425 014D  
                      u1602 056A                        u1530 04AE                        u1370 012A  
                      u1450 0E60                        u2147 0F74                        u1195 00AE  
                      u1611 058F                        u1603 0571                        u1531 04AD  
                      u1371 0129                        u1451 0E5F                        u1700 06C8  
                      u1612 0596                        u1540 04CF                        u1380 0131  
                      u2157 0F7E                        u1621 05AB                        u1613 059D  
                      u1541 04CE                        u1381 0130                        u1365 010F  
                      u2077 0274                        u1622 05B2                        u1550 04D5  
                      u1470 0E72                        u2167 0D78                        u1295 0FC6  
                      u1711 06D4                        u1623 05B9                        u1551 04D4  
                      u1471 0E71                        u2087 029F                        u1800 075B  
                      u1720 06F0                        u1712 06DB                        u1560 04DA  
                      u1480 0E7C                        u1801 075A                        u1713 06E2  
                      u1705 06C3                        u1641 05E1                        u1561 04D9  
                      u1481 0E7B                        u1465 0E64                        u2097 02CA  
                      u1810 0762                        u1642 05E8                        u1570 04F1  
                      u1811 0761                        u1731 06FC                        u1651 060E  
                      u1643 05EF                        u1635 05BB                        u1571 04F0  
                      u1395 0133                        u1900 0DAC                        u1820 0768  
                      u1732 0703                        u1652 0615                        u1580 04F6  
                      u1901 0DAB                        u1821 0767                        u1733 070A  
                      u1725 06EB                        u1653 061C                        u1581 04F5  
                      u1485 0E78                        u1910 0DDC                        u1830 077A  
                      u1911 0DDB                        u1831 0779                        u1671 0644  
                      u1591 0547                        u1495 0E83                        u1920 0E4D  
                      u1840 0789                        u1760 072E                        u1672 064B  
                      u1592 054E                        u1921 0E4C                        u1761 072D  
                      u1745 070C                        u1681 0671                        u1673 0652  
                      u1665 061E                        u1593 0555                        u1930 0172  
                      u1850 07A6                        u1682 0678                        u1931 0171  
                      u1851 07A5                        u1755 0723                        u1691 069E  
                      u1683 067F                        u1940 0176                        u1860 07C0  
                      u1780 0742                        u1692 06A5                        u1941 0175  
                      u1861 07BF                        u1845 0784                        u1781 0741  
                      u1693 06AC                        u1950 0196                        u1870 07DE  
                      u1790 0747                        u1951 0195                        u1871 07DD  
                      u1855 07A2                        u1791 0746                        u1775 0731  
                      u1880 0EAF                        u1865 07BC                        u1890 0D9A  
                      u1970 01B7                        u1891 0D99                        u1971 01B6  
                      u1885 0EAA                        u1965 01A9                        u1990 01D9  
                      u1991 01D8                        u1985 01CB                __CFG_WRT$OFF 0000  
                      _cont 006C                        _main 0226                        _foto 006D  
                      _potf 0053                        btemp 007E     __end_of_Init_I2C_Master 0ED0  
                      start 0000               __CFG_IESO$OFF 0000            __end_of_LCD_INIT 0FA5  
          ?_I2C_Master_Read 0070           Write_I2C_Master@a 0070               ___fltol@sign1 0043  
                     ?_main 0070             __end_of___awdiv 00F0               __CFG_WDTE$OFF 0000  
           __end_of___awmod 1000             __end_of___flmul 07F3             __end_of___fltol 016C  
                     _ANSEL 0188             __end_of___lldiv 0089     __end_of_Wait_I2C_Master 0D5A  
           ___awdiv@divisor 0070    __end_of_Start_I2C_Master 0D3A             __end_of___lwmod 0E94  
           ___awdiv@counter 0075                       _PORTB 0006                       _PORTD 0008  
                     _TRISB 0086                       _TRISD 0088              __CFG_FCMEN$OFF 0000  
                     _fotof 004F              __CFG_BOREN$OFF 0000                       pclath 000A  
                     status 0003                       wtemp0 007E              __CFG_MCLRE$OFF 0000  
           __initialization 07F3                __end_of_main 0492                      ??_main 004B  
                 ??_LCD_CMD 0070            ___awdiv@dividend 0072                      _ANSELH 0189  
                    _SSPADD 0093                      _SSPCON 0014                      _SSPBUF 0013  
        __size_of_Init_Port 000D            __end_of___xxtofl 0226            _Write_I2C_Master 0D43  
          ?_Init_I2C_Master 0020              __CFG_PWRTE$OFF 0000   convertir_a_ascii@temporal 0072  
          ??_LCD_SET_CURSOR 0074                   ??___awdiv 0074                   ??___awmod 007D  
                 ??___flmul 0028                   ??___fltol 003E                   ??___lldiv 0078  
 __size_of_obtener_unidades 001B                   ??___lwmod 0074            ___awdiv@quotient 0077  
           ___awmod@divisor 0079                      _tempot 0059             ___awmod@counter 0020  
                    _unipot 006B            ?_Wait_I2C_Master 0070          __size_of__Umul8_16 0027  
              ___xxtofl@arg 007A                   ?_LCD_INIT 0070                ___xxtofl@exp 0079  
              ___xxtofl@val 0070     __end_of__initialization 07FC            ??_LCD_WRITE_CHAR 0070  
                ___fltol@f1 003A              __pcstackCOMMON 0070    __size_of_obtener_decenas 0028  
         __end_of_Init_Port 0D67     obtener_decenas@temporal 0026   obtener_decimal_1@temporal 0049  
 obtener_decimal_2@temporal 0049                  __pbssBANK0 004F                  ??_LCD_INIT 0073  
 __size_of_LCD_WRITE_STRING 0025           __end_of__Umul8_16 0E04                  __pmaintext 0226  
  __size_of_Stop_I2C_Master 0009                     _LCD_CMD 0D67           ?_Start_I2C_Master 0070  
                 ?___xxtofl 0070             LCD_SET_CURSOR@a 0075             LCD_SET_CURSOR@b 0073  
        ??_Start_I2C_Master 0070          convertir_a_ascii@a 0071     I2C_Master_Read@temporal 0074  
                   _SSPCON2 0091                     _SSPSTAT 0094                  __stringtab 0800  
         LCD_WRITE_STRING@a 0075           LCD_WRITE_STRING@i 0073                     ___awdiv 0089  
                   ___awmod 0FA5                     ___flmul 0492                     ___fltol 00F0  
                   ___lldiv 0023            _obtener_unidades 0008                     ___lwmod 0E5A  
                   _address 006F                     __ptext1 0008                     __ptext2 0F11  
                   __ptext3 0ED0                     __ptext4 0E5A                     __ptext5 00F0  
                   __ptext6 0492                     __ptext7 0DDD                     __ptext8 0E04  
                   __ptext9 0FA5    __end_of_Write_I2C_Master 0D4D                  ??___xxtofl 0074  
          ___awmod@dividend 007B           _convertir_a_ascii 0D21    __size_of_I2C_Master_Read 002E  
                   _temfoto 0057           ??_obtener_decenas 0022                     _unicont 0064  
                   _unifoto 0067          ?_convertir_a_ascii 0070                     clrloop0 0D2A  
      end_of_initialization 07FC         ??_convertir_a_ascii 0070             ___lldiv@divisor 0070  
           ___lldiv@counter 007D            I2C_Master_Read@a 0070                   _PORTDbits 0008  
         ??_Stop_I2C_Master 0070   __end_of_convertir_a_ascii 0D29               ___xxtofl@sign 0078  
                 _TRISCbits 0087            _LCD_WRITE_STRING 0DB8                 ___flmul@grs 002E  
         __size_of_LCD_INIT 0053          obtener_decimal_1@a 0045          obtener_decimal_2@a 0045  
  __size_of_Init_I2C_Master 003C         start_initialization 07F3                   _Init_Port 0D5A  
  __size_of_Wait_I2C_Master 000D             LCD_WRITE_CHAR@a 0072           ??_I2C_Master_Read 0072  
  __CFG_FOSC$INTRC_NOCLKOUT 0000    obtener_unidades@temporal 0026                   __Umul8_16 0DDD  
                  LCD_CMD@a 0072                    ?_LCD_CMD 0070     __size_of_LCD_SET_CURSOR 0024  
__size_of_convertir_a_ascii 0008                   ___flmul@a 0024                   ___flmul@b 0020  
                 ___latbits 0002               __pcstackBANK0 0020                  ?_Init_Port 0070  
         __size_of___xxtofl 00BA                   _deci1foto 0066                   _deci2foto 0065  
  __end_of_obtener_unidades 0023   __size_of_Start_I2C_Master 0009                   _charcont1 005C  
                 _charcont2 005B                   _charfoto1 0062                   _charfoto2 0060  
                 _charfoto3 005E                    ?___awdiv 0070                    ?___awmod 0079  
                  ?___flmul 0020                    ?___fltol 003A                    ?___lldiv 0070  
                ?__Umul8_16 0070                    ?___lwmod 0070     __size_of_LCD_WRITE_CHAR 0017  
           _obtener_decenas 0E04                   __pstrings 0800           ?_Write_I2C_Master 0070  
         ??_Init_I2C_Master 0024          ??_Write_I2C_Master 0072      LCD_SET_CURSOR@temporal 0076  
                  _LCD_INIT 0F52                   clear_ram0 0D29                    _PIE1bits 008C  
         _obtener_decimal_1 0ED0           _obtener_decimal_2 0F11           ??_Wait_I2C_Master 0070  
           _Stop_I2C_Master 0D3A                    _PIR1bits 000C          ?_obtener_decimal_1 0045  
        ?_obtener_decimal_2 0045    __end_of_LCD_WRITE_STRING 0DDD         ??_obtener_decimal_1 007E  
       ??_obtener_decimal_2 007E                 __stringbase 0805            __size_of_LCD_CMD 0016  
               ??_Init_Port 0070   __end_of_obtener_decimal_1 0F11   __end_of_obtener_decimal_2 0F52  
   __end_of_obtener_decenas 0E2C                 ??__Umul8_16 0072            __size_of___awdiv 0067  
          __size_of___awmod 005B            __size_of___flmul 0361            __size_of___fltol 007C  
          __size_of___lldiv 0066            __size_of___lwmod 003A          __end_of__stringtab 0806  
            _LCD_SET_CURSOR 0D94                    _deci1pot 006A                    _deci2pot 0069  
                  _dececont 0063             _I2C_Master_Read 0E2C                    ___xxtofl 016C  
                  _charpot1 0061                    _charpot2 005F                    _charpot3 005D  
                  __ptext10 0089                    __ptext11 0D21                    __ptext20 0D67  
                  __ptext12 016C                    __ptext21 0D5A                    __ptext13 0D43  
                  __ptext22 0E94                    __ptext14 0D3A                    __ptext23 0023  
                  __ptext15 0D31                    __ptext24 0E2C                    __ptext16 0DB8  
                  __ptext25 0D4D                    __ptext17 0D7D                    __ptext18 0D94  
                  __ptext19 0F52           __CFG_BOR4V$BOR40V 0000     __end_of_Stop_I2C_Master 0D43  
             __size_of_main 026C            _Start_I2C_Master 0D31              _LCD_WRITE_CHAR 0D7D  
    __end_of_LCD_SET_CURSOR 0DB8            obtener_decenas@a 0025                  _INTCONbits 000B  
         ?_obtener_unidades 0070  __size_of_obtener_decimal_1 0041  __size_of_obtener_decimal_2 0041  
          ___lwmod@dividend 0072            ___lldiv@dividend 0074            Init_I2C_Master@b 0020  
        ??_obtener_unidades 0022                   stringcode 0800            ?_obtener_decenas 0070  
    __end_of_LCD_WRITE_CHAR 0D94             _Init_I2C_Master 0E94     __end_of_I2C_Master_Read 0E5A  
           ?_LCD_SET_CURSOR 0073      __Umul8_16@multiplicand 0070           obtener_unidades@a 0025  
          ___lldiv@quotient 0079             ___lwmod@divisor 0070             ___lwmod@counter 0075  
                  stringdir 0800                    stringtab 0800                 _SSPCON2bits 0091  
           _Wait_I2C_Master 0D4D            ?_Stop_I2C_Master 0070        __Umul8_16@multiplier 0078  
 __size_of_Write_I2C_Master 000A                  _SSPCONbits 0014           __Umul8_16@product 0074  
